
/home/lucomotive/Bunker/Projects/bachelorarbeit/build/hello_world.elf:     file format elf32-littlearm

Sections:
Idx Name          Size      VMA       LMA       File off  Algn
  0 .text         00001a64  10000000  10000000  00001000  2**3
                  CONTENTS, ALLOC, LOAD, READONLY, CODE
  1 .rodata       00000134  10001a64  10001a64  00002a64  2**2
                  CONTENTS, ALLOC, LOAD, READONLY, DATA
  2 .ARM.exidx    00000008  10001b98  10001b98  00002b98  2**2
                  CONTENTS, ALLOC, LOAD, READONLY, DATA
  3 .binary_info  00000028  10001ba0  10001ba0  00002ba0  2**2
                  CONTENTS, ALLOC, LOAD, READONLY, DATA
  4 .ram_vector_table 00000110  20000000  20000000  00004000  2**2
                  ALLOC
  5 .uninitialized_data 00000000  20000110  20000110  00003d78  2**0
                  CONTENTS
  6 .data         0000019c  20000110  10001bc8  00003110  2**3
                  CONTENTS, ALLOC, LOAD, READONLY, CODE
  7 .tdata        00000000  200002ac  200002ac  00003d78  2**0
                  CONTENTS, ALLOC, LOAD, DATA, THREAD_LOCAL
  8 .tbss         00000000  200002ac  200002ac  00000000  2**0
                  ALLOC, THREAD_LOCAL
  9 .bss          00000228  200002b0  10001d64  000042b0  2**3
                  ALLOC
 10 .heap         00000800  200004d8  10001d64  000044d8  2**2
                  ALLOC, READONLY
 11 .scratch_x    00000000  20080000  20080000  00003d78  2**0
                  CONTENTS
 12 .scratch_y    00000000  20081000  20081000  00003d78  2**0
                  CONTENTS
 13 .stack_dummy  00000800  20081000  20081000  00004000  2**5
                  ALLOC, READONLY
 14 .flash_end    00000014  10001d64  10001d64  00003d64  2**2
                  CONTENTS, ALLOC, LOAD, READONLY, DATA
 15 .ARM.attributes 00000034  00000000  00000000  00003d78  2**0
                  CONTENTS, READONLY
 16 .comment      00000045  00000000  00000000  00003dac  2**0
                  CONTENTS, READONLY
 17 .debug_info   00020180  00000000  00000000  00003df1  2**0
                  CONTENTS, READONLY, DEBUGGING, OCTETS
 18 .debug_abbrev 00005617  00000000  00000000  00023f71  2**0
                  CONTENTS, READONLY, DEBUGGING, OCTETS
 19 .debug_aranges 00000b10  00000000  00000000  00029588  2**3
                  CONTENTS, READONLY, DEBUGGING, OCTETS
 20 .debug_rnglists 00002ff0  00000000  00000000  0002a098  2**0
                  CONTENTS, READONLY, DEBUGGING, OCTETS
 21 .debug_line   0001778c  00000000  00000000  0002d088  2**0
                  CONTENTS, READONLY, DEBUGGING, OCTETS
 22 .debug_str    00005a50  00000000  00000000  00044814  2**0
                  CONTENTS, READONLY, DEBUGGING, OCTETS
 23 .debug_frame  00001e50  00000000  00000000  0004a264  2**2
                  CONTENTS, READONLY, DEBUGGING, OCTETS
 24 .debug_loclists 0000fc74  00000000  00000000  0004c0b4  2**0
                  CONTENTS, READONLY, DEBUGGING, OCTETS
 25 .debug_line_str 00000180  00000000  00000000  0005bd28  2**0
                  CONTENTS, READONLY, DEBUGGING, OCTETS

/home/lucomotive/Bunker/Projects/bachelorarbeit/build/hello_world.elf:     file format elf32-littlearm


Disassembly of section .text:

10000000 <__VECTOR_TABLE>:
10000000:	20082000 	.word	0x20082000
10000004:	1000015d 	.word	0x1000015d
10000008:	1000011b 	.word	0x1000011b
1000000c:	1000011d 	.word	0x1000011d
10000010:	10000111 	.word	0x10000111
10000014:	10000111 	.word	0x10000111
10000018:	10000111 	.word	0x10000111
1000001c:	10000111 	.word	0x10000111
10000020:	10000119 	.word	0x10000119
10000024:	10000119 	.word	0x10000119
10000028:	10000119 	.word	0x10000119
1000002c:	1000011f 	.word	0x1000011f
10000030:	10000111 	.word	0x10000111
10000034:	10000119 	.word	0x10000119
10000038:	10000121 	.word	0x10000121
1000003c:	10000123 	.word	0x10000123
10000040:	10000111 	.word	0x10000111
10000044:	10000111 	.word	0x10000111
10000048:	10000111 	.word	0x10000111
1000004c:	10000111 	.word	0x10000111
10000050:	10000111 	.word	0x10000111
10000054:	10000111 	.word	0x10000111
10000058:	10000111 	.word	0x10000111
1000005c:	10000111 	.word	0x10000111
10000060:	10000111 	.word	0x10000111
10000064:	10000111 	.word	0x10000111
10000068:	10000111 	.word	0x10000111
1000006c:	10000111 	.word	0x10000111
10000070:	10000111 	.word	0x10000111
10000074:	10000111 	.word	0x10000111
10000078:	10000111 	.word	0x10000111
1000007c:	10000111 	.word	0x10000111
10000080:	10000111 	.word	0x10000111
10000084:	10000111 	.word	0x10000111
10000088:	10000111 	.word	0x10000111
1000008c:	10000111 	.word	0x10000111
10000090:	10000111 	.word	0x10000111
10000094:	10000111 	.word	0x10000111
10000098:	10000111 	.word	0x10000111
1000009c:	10000111 	.word	0x10000111
100000a0:	10000111 	.word	0x10000111
100000a4:	10000111 	.word	0x10000111
100000a8:	10000111 	.word	0x10000111
100000ac:	10000111 	.word	0x10000111
100000b0:	10000111 	.word	0x10000111
100000b4:	10000111 	.word	0x10000111
100000b8:	10000111 	.word	0x10000111
100000bc:	10000111 	.word	0x10000111
100000c0:	10000111 	.word	0x10000111
100000c4:	10000111 	.word	0x10000111
100000c8:	10000111 	.word	0x10000111
100000cc:	10000111 	.word	0x10000111
100000d0:	10000111 	.word	0x10000111
100000d4:	10000111 	.word	0x10000111
100000d8:	10000111 	.word	0x10000111
100000dc:	10000111 	.word	0x10000111
100000e0:	10000111 	.word	0x10000111
100000e4:	10000111 	.word	0x10000111
100000e8:	10000111 	.word	0x10000111
100000ec:	10000111 	.word	0x10000111
100000f0:	10000111 	.word	0x10000111
100000f4:	10000111 	.word	0x10000111
100000f8:	10000111 	.word	0x10000111
100000fc:	10000111 	.word	0x10000111
10000100:	10000111 	.word	0x10000111
10000104:	10000111 	.word	0x10000111
10000108:	10000111 	.word	0x10000111
1000010c:	10000111 	.word	0x10000111

10000110 <__unhandled_user_irq>:
10000110:	f3ef 8005 	mrs	r0, IPSR
10000114:	3810      	subs	r0, #16

10000116 <unhandled_user_irq_num_in_r0>:
10000116:	be00      	bkpt	0x0000

10000118 <isr_invalid>:
10000118:	be00      	bkpt	0x0000

1000011a <isr_nmi>:
1000011a:	be00      	bkpt	0x0000

1000011c <isr_hardfault>:
1000011c:	be00      	bkpt	0x0000

1000011e <isr_svcall>:
1000011e:	be00      	bkpt	0x0000

10000120 <isr_pendsv>:
10000120:	be00      	bkpt	0x0000

10000122 <isr_systick>:
10000122:	be00      	bkpt	0x0000

10000124 <__default_isrs_end>:
10000124:	7188ebf2 	.word	0x7188ebf2
10000128:	10001ba0 	.word	0x10001ba0
1000012c:	10001bc8 	.word	0x10001bc8
10000130:	100001a0 	.word	0x100001a0
10000134:	e71aa390 	.word	0xe71aa390

10000138 <__binary_info_header_end>:
10000138:	ffffded3 	.word	0xffffded3
1000013c:	10210142 	.word	0x10210142
10000140:	000001ff 	.word	0x000001ff
10000144:	00001c2c 	.word	0x00001c2c
10000148:	ab123579 	.word	0xab123579

1000014c <_entry_point>:
1000014c:	f04f 0000 	mov.w	r0, #0

10000150 <_enter_vtable_in_r0>:
10000150:	491e      	ldr	r1, [pc, #120]	@ (100001cc <data_cpy_table+0x2c>)
10000152:	6008      	str	r0, [r1, #0]
10000154:	c806      	ldmia	r0!, {r1, r2}
10000156:	f381 8808 	msr	MSP, r1
1000015a:	4710      	bx	r2

1000015c <_reset_handler>:
1000015c:	f04f 4050 	mov.w	r0, #3489660928	@ 0xd0000000
10000160:	6800      	ldr	r0, [r0, #0]
10000162:	b110      	cbz	r0, 1000016a <hold_non_core0_in_bootrom+0x6>

10000164 <hold_non_core0_in_bootrom>:
10000164:	f04f 0000 	mov.w	r0, #0
10000168:	e7f2      	b.n	10000150 <_enter_vtable_in_r0>
1000016a:	a40d      	add	r4, pc, #52	@ (adr r4, 100001a0 <data_cpy_table>)
1000016c:	cc0e      	ldmia	r4!, {r1, r2, r3}
1000016e:	2900      	cmp	r1, #0
10000170:	d002      	beq.n	10000178 <hold_non_core0_in_bootrom+0x14>
10000172:	f000 f812 	bl	1000019a <data_cpy>
10000176:	e7f9      	b.n	1000016c <hold_non_core0_in_bootrom+0x8>
10000178:	4915      	ldr	r1, [pc, #84]	@ (100001d0 <data_cpy_table+0x30>)
1000017a:	4a16      	ldr	r2, [pc, #88]	@ (100001d4 <data_cpy_table+0x34>)
1000017c:	2000      	movs	r0, #0
1000017e:	e000      	b.n	10000182 <bss_fill_test>

10000180 <bss_fill_loop>:
10000180:	c101      	stmia	r1!, {r0}

10000182 <bss_fill_test>:
10000182:	4291      	cmp	r1, r2
10000184:	d1fc      	bne.n	10000180 <bss_fill_loop>

10000186 <platform_entry>:
10000186:	4914      	ldr	r1, [pc, #80]	@ (100001d8 <data_cpy_table+0x38>)
10000188:	4788      	blx	r1
1000018a:	4914      	ldr	r1, [pc, #80]	@ (100001dc <data_cpy_table+0x3c>)
1000018c:	4788      	blx	r1
1000018e:	4914      	ldr	r1, [pc, #80]	@ (100001e0 <data_cpy_table+0x40>)
10000190:	4788      	blx	r1
10000192:	be00      	bkpt	0x0000
10000194:	e7fd      	b.n	10000192 <platform_entry+0xc>

10000196 <data_cpy_loop>:
10000196:	c901      	ldmia	r1!, {r0}
10000198:	c201      	stmia	r2!, {r0}

1000019a <data_cpy>:
1000019a:	429a      	cmp	r2, r3
1000019c:	d3fb      	bcc.n	10000196 <data_cpy_loop>
1000019e:	4770      	bx	lr

100001a0 <data_cpy_table>:
100001a0:	10001bc8 	.word	0x10001bc8
100001a4:	20000110 	.word	0x20000110
100001a8:	200002ac 	.word	0x200002ac
100001ac:	10001d64 	.word	0x10001d64
100001b0:	20080000 	.word	0x20080000
100001b4:	20080000 	.word	0x20080000
100001b8:	10001d64 	.word	0x10001d64
100001bc:	20081000 	.word	0x20081000
100001c0:	20081000 	.word	0x20081000
100001c4:	00000000 	.word	0x00000000
100001c8:	4770      	bx	lr
100001ca:	0000      	.short	0x0000
100001cc:	e000ed08 	.word	0xe000ed08
100001d0:	200002ac 	.word	0x200002ac
100001d4:	200004d8 	.word	0x200004d8
100001d8:	100013f9 	.word	0x100013f9
100001dc:	10000235 	.word	0x10000235
100001e0:	100013f1 	.word	0x100013f1

100001e4 <_init>:
100001e4:	b5f8      	push	{r3, r4, r5, r6, r7, lr}
100001e6:	bf00      	nop

100001e8 <register_tm_clones>:
100001e8:	4b06      	ldr	r3, [pc, #24]	@ (10000204 <register_tm_clones+0x1c>)
100001ea:	4907      	ldr	r1, [pc, #28]	@ (10000208 <register_tm_clones+0x20>)
100001ec:	1ac9      	subs	r1, r1, r3
100001ee:	1089      	asrs	r1, r1, #2
100001f0:	bf48      	it	mi
100001f2:	3101      	addmi	r1, #1
100001f4:	1049      	asrs	r1, r1, #1
100001f6:	d003      	beq.n	10000200 <register_tm_clones+0x18>
100001f8:	4b04      	ldr	r3, [pc, #16]	@ (1000020c <register_tm_clones+0x24>)
100001fa:	b10b      	cbz	r3, 10000200 <register_tm_clones+0x18>
100001fc:	4801      	ldr	r0, [pc, #4]	@ (10000204 <register_tm_clones+0x1c>)
100001fe:	4718      	bx	r3
10000200:	4770      	bx	lr
10000202:	bf00      	nop
10000204:	200002ac 	.word	0x200002ac
10000208:	200002ac 	.word	0x200002ac
1000020c:	00000000 	.word	0x00000000

10000210 <frame_dummy>:
10000210:	b508      	push	{r3, lr}
10000212:	4b05      	ldr	r3, [pc, #20]	@ (10000228 <frame_dummy+0x18>)
10000214:	b11b      	cbz	r3, 1000021e <frame_dummy+0xe>
10000216:	4905      	ldr	r1, [pc, #20]	@ (1000022c <frame_dummy+0x1c>)
10000218:	4805      	ldr	r0, [pc, #20]	@ (10000230 <frame_dummy+0x20>)
1000021a:	f3af 8000 	nop.w
1000021e:	e8bd 4008 	ldmia.w	sp!, {r3, lr}
10000222:	f7ff bfe1 	b.w	100001e8 <register_tm_clones>
10000226:	bf00      	nop
10000228:	00000000 	.word	0x00000000
1000022c:	20000490 	.word	0x20000490
10000230:	10001a64 	.word	0x10001a64

10000234 <main>:
10000234:	b508      	push	{r3, lr}
10000236:	f000 f807 	bl	10000248 <setup_default_uart>
1000023a:	4802      	ldr	r0, [pc, #8]	@ (10000244 <main+0x10>)
1000023c:	f001 fa1e 	bl	1000167c <__wrap_puts>
10000240:	2000      	movs	r0, #0
10000242:	bd08      	pop	{r3, pc}
10000244:	10001a64 	.word	0x10001a64

10000248 <setup_default_uart>:
10000248:	f001 bb12 	b.w	10001870 <stdio_uart_init>

1000024c <gpio_set_function>:
1000024c:	f44f 7c80 	mov.w	ip, #256	@ 0x100
10000250:	4b0c      	ldr	r3, [pc, #48]	@ (10000284 <gpio_set_function+0x38>)
10000252:	b500      	push	{lr}
10000254:	f853 2020 	ldr.w	r2, [r3, r0, lsl #2]
10000258:	eb03 0380 	add.w	r3, r3, r0, lsl #2
1000025c:	00c0      	lsls	r0, r0, #3
1000025e:	f082 0240 	eor.w	r2, r2, #64	@ 0x40
10000262:	f100 4080 	add.w	r0, r0, #1073741824	@ 0x40000000
10000266:	f503 5e80 	add.w	lr, r3, #4096	@ 0x1000
1000026a:	f002 02c0 	and.w	r2, r2, #192	@ 0xc0
1000026e:	f500 3020 	add.w	r0, r0, #163840	@ 0x28000
10000272:	f503 5340 	add.w	r3, r3, #12288	@ 0x3000
10000276:	f8ce 2000 	str.w	r2, [lr]
1000027a:	6041      	str	r1, [r0, #4]
1000027c:	f8c3 c000 	str.w	ip, [r3]
10000280:	bd00      	pop	{pc}
10000282:	bf00      	nop
10000284:	40038004 	.word	0x40038004

10000288 <panic>:
10000288:	b40f      	push	{r0, r1, r2, r3}
1000028a:	b500      	push	{lr}
1000028c:	4808      	ldr	r0, [pc, #32]	@ (100002b0 <panic+0x28>)
1000028e:	b083      	sub	sp, #12
10000290:	f001 f9f4 	bl	1000167c <__wrap_puts>
10000294:	9b04      	ldr	r3, [sp, #16]
10000296:	b13b      	cbz	r3, 100002a8 <panic+0x20>
10000298:	a905      	add	r1, sp, #20
1000029a:	4618      	mov	r0, r3
1000029c:	9101      	str	r1, [sp, #4]
1000029e:	f001 f88d 	bl	100013bc <weak_raw_vprintf>
100002a2:	4804      	ldr	r0, [pc, #16]	@ (100002b4 <panic+0x2c>)
100002a4:	f001 f9ea 	bl	1000167c <__wrap_puts>
100002a8:	2001      	movs	r0, #1
100002aa:	f001 f89f 	bl	100013ec <_exit>
100002ae:	bf00      	nop
100002b0:	10001a74 	.word	0x10001a74
100002b4:	10001a84 	.word	0x10001a84

100002b8 <hw_claim_or_assert>:
100002b8:	b570      	push	{r4, r5, r6, lr}
100002ba:	4616      	mov	r6, r2
100002bc:	f3ef 8410 	mrs	r4, PRIMASK
100002c0:	b672      	cpsid	i
100002c2:	f8df e048 	ldr.w	lr, [pc, #72]	@ 1000030c <hw_claim_or_assert+0x54>
100002c6:	e8de 2fcf 	ldaexb	r2, [lr]
100002ca:	2301      	movs	r3, #1
100002cc:	2a00      	cmp	r2, #0
100002ce:	d1fa      	bne.n	100002c6 <hw_claim_or_assert+0xe>
100002d0:	e8ce 3f42 	strexb	r2, r3, [lr]
100002d4:	2a00      	cmp	r2, #0
100002d6:	d1f6      	bne.n	100002c6 <hw_claim_or_assert+0xe>
100002d8:	f3bf 8f5f 	dmb	sy
100002dc:	2301      	movs	r3, #1
100002de:	f001 0c07 	and.w	ip, r1, #7
100002e2:	08ca      	lsrs	r2, r1, #3
100002e4:	fa03 f30c 	lsl.w	r3, r3, ip
100002e8:	f810 c002 	ldrb.w	ip, [r0, r2]
100002ec:	ea1c 0503 	ands.w	r5, ip, r3
100002f0:	d108      	bne.n	10000304 <hw_claim_or_assert+0x4c>
100002f2:	ea4c 0c03 	orr.w	ip, ip, r3
100002f6:	f800 c002 	strb.w	ip, [r0, r2]
100002fa:	e8ce 5f8f 	stlb	r5, [lr]
100002fe:	f384 8810 	msr	PRIMASK, r4
10000302:	bd70      	pop	{r4, r5, r6, pc}
10000304:	4630      	mov	r0, r6
10000306:	f7ff ffbf 	bl	10000288 <panic>
1000030a:	bf00      	nop
1000030c:	2000043b 	.word	0x2000043b

10000310 <next_striped_spin_lock_num>:
10000310:	4a04      	ldr	r2, [pc, #16]	@ (10000324 <next_striped_spin_lock_num+0x14>)
10000312:	7810      	ldrb	r0, [r2, #0]
10000314:	1c43      	adds	r3, r0, #1
10000316:	b2db      	uxtb	r3, r3
10000318:	2b18      	cmp	r3, #24
1000031a:	bf28      	it	cs
1000031c:	2310      	movcs	r3, #16
1000031e:	7013      	strb	r3, [r2, #0]
10000320:	4770      	bx	lr
10000322:	bf00      	nop
10000324:	20000228 	.word	0x20000228

10000328 <spinlock_set_extexclall>:
10000328:	f04f 22e0 	mov.w	r2, #3758153728	@ 0xe000e000
1000032c:	6893      	ldr	r3, [r2, #8]
1000032e:	f043 5300 	orr.w	r3, r3, #536870912	@ 0x20000000
10000332:	6093      	str	r3, [r2, #8]
10000334:	4770      	bx	lr
10000336:	bf00      	nop

10000338 <spin_locks_reset>:
10000338:	2100      	movs	r1, #0
1000033a:	4b04      	ldr	r3, [pc, #16]	@ (1000034c <spin_locks_reset+0x14>)
1000033c:	f103 0220 	add.w	r2, r3, #32
10000340:	e8c3 1f8f 	stlb	r1, [r3]
10000344:	3301      	adds	r3, #1
10000346:	4293      	cmp	r3, r2
10000348:	d1fa      	bne.n	10000340 <spin_locks_reset+0x8>
1000034a:	4770      	bx	lr
1000034c:	20000430 	.word	0x20000430

10000350 <runtime_init_per_core_irq_priorities>:
10000350:	f04f 23e0 	mov.w	r3, #3758153728	@ 0xe000e000
10000354:	f04f 3280 	mov.w	r2, #2155905152	@ 0x80808080
10000358:	f8c3 2400 	str.w	r2, [r3, #1024]	@ 0x400
1000035c:	f8c3 2404 	str.w	r2, [r3, #1028]	@ 0x404
10000360:	f8c3 2408 	str.w	r2, [r3, #1032]	@ 0x408
10000364:	f8c3 240c 	str.w	r2, [r3, #1036]	@ 0x40c
10000368:	f8c3 2410 	str.w	r2, [r3, #1040]	@ 0x410
1000036c:	f8c3 2414 	str.w	r2, [r3, #1044]	@ 0x414
10000370:	f8c3 2418 	str.w	r2, [r3, #1048]	@ 0x418
10000374:	f8c3 241c 	str.w	r2, [r3, #1052]	@ 0x41c
10000378:	f8c3 2420 	str.w	r2, [r3, #1056]	@ 0x420
1000037c:	f8c3 2424 	str.w	r2, [r3, #1060]	@ 0x424
10000380:	f8c3 2428 	str.w	r2, [r3, #1064]	@ 0x428
10000384:	f8c3 242c 	str.w	r2, [r3, #1068]	@ 0x42c
10000388:	f8c3 2430 	str.w	r2, [r3, #1072]	@ 0x430
1000038c:	b662      	cpsie	i
1000038e:	4770      	bx	lr

10000390 <irq_set_enabled>:
10000390:	2301      	movs	r3, #1
10000392:	f000 021f 	and.w	r2, r0, #31
10000396:	4093      	lsls	r3, r2
10000398:	0940      	lsrs	r0, r0, #5
1000039a:	b141      	cbz	r1, 100003ae <irq_set_enabled+0x1e>
1000039c:	0080      	lsls	r0, r0, #2
1000039e:	f100 4060 	add.w	r0, r0, #3758096384	@ 0xe0000000
100003a2:	f500 4061 	add.w	r0, r0, #57600	@ 0xe100
100003a6:	f8c0 3180 	str.w	r3, [r0, #384]	@ 0x180
100003aa:	6003      	str	r3, [r0, #0]
100003ac:	4770      	bx	lr
100003ae:	4a02      	ldr	r2, [pc, #8]	@ (100003b8 <irq_set_enabled+0x28>)
100003b0:	3020      	adds	r0, #32
100003b2:	f842 3020 	str.w	r3, [r2, r0, lsl #2]
100003b6:	4770      	bx	lr
100003b8:	e000e100 	.word	0xe000e100

100003bc <irq_set_exclusive_handler>:
100003bc:	b510      	push	{r4, lr}
100003be:	b082      	sub	sp, #8
100003c0:	f3ef 8410 	mrs	r4, PRIMASK
100003c4:	b672      	cpsid	i
100003c6:	4b16      	ldr	r3, [pc, #88]	@ (10000420 <irq_set_exclusive_handler+0x64>)
100003c8:	e8d3 cfcf 	ldaexb	ip, [r3]
100003cc:	2201      	movs	r2, #1
100003ce:	f1bc 0f00 	cmp.w	ip, #0
100003d2:	d1f9      	bne.n	100003c8 <irq_set_exclusive_handler+0xc>
100003d4:	e8c3 2f4c 	strexb	ip, r2, [r3]
100003d8:	f1bc 0f00 	cmp.w	ip, #0
100003dc:	d1f4      	bne.n	100003c8 <irq_set_exclusive_handler+0xc>
100003de:	f3bf 8f5f 	dmb	sy
100003e2:	4a10      	ldr	r2, [pc, #64]	@ (10000424 <irq_set_exclusive_handler+0x68>)
100003e4:	3010      	adds	r0, #16
100003e6:	6892      	ldr	r2, [r2, #8]
100003e8:	f8df c03c 	ldr.w	ip, [pc, #60]	@ 10000428 <irq_set_exclusive_handler+0x6c>
100003ec:	f852 2020 	ldr.w	r2, [r2, r0, lsl #2]
100003f0:	4562      	cmp	r2, ip
100003f2:	d008      	beq.n	10000406 <irq_set_exclusive_handler+0x4a>
100003f4:	4291      	cmp	r1, r2
100003f6:	d006      	beq.n	10000406 <irq_set_exclusive_handler+0x4a>
100003f8:	e9cd 0100 	strd	r0, r1, [sp]
100003fc:	f000 fec8 	bl	10001190 <hard_assertion_failure>
10000400:	9901      	ldr	r1, [sp, #4]
10000402:	4b07      	ldr	r3, [pc, #28]	@ (10000420 <irq_set_exclusive_handler+0x64>)
10000404:	9800      	ldr	r0, [sp, #0]
10000406:	4a07      	ldr	r2, [pc, #28]	@ (10000424 <irq_set_exclusive_handler+0x68>)
10000408:	6892      	ldr	r2, [r2, #8]
1000040a:	f842 1020 	str.w	r1, [r2, r0, lsl #2]
1000040e:	f3bf 8f5f 	dmb	sy
10000412:	2200      	movs	r2, #0
10000414:	e8c3 2f8f 	stlb	r2, [r3]
10000418:	f384 8810 	msr	PRIMASK, r4
1000041c:	b002      	add	sp, #8
1000041e:	bd10      	pop	{r4, pc}
10000420:	20000439 	.word	0x20000439
10000424:	e000ed00 	.word	0xe000ed00
10000428:	10000111 	.word	0x10000111

1000042c <irq_remove_handler>:
1000042c:	e92d 4ff0 	stmdb	sp!, {r4, r5, r6, r7, r8, r9, sl, fp, lr}
10000430:	4603      	mov	r3, r0
10000432:	b085      	sub	sp, #20
10000434:	f3ef 8710 	mrs	r7, PRIMASK
10000438:	b672      	cpsid	i
1000043a:	4c76      	ldr	r4, [pc, #472]	@ (10000614 <irq_remove_handler+0x1e8>)
1000043c:	e8d4 0fcf 	ldaexb	r0, [r4]
10000440:	2201      	movs	r2, #1
10000442:	2800      	cmp	r0, #0
10000444:	d1fa      	bne.n	1000043c <irq_remove_handler+0x10>
10000446:	e8c4 2f40 	strexb	r0, r2, [r4]
1000044a:	2800      	cmp	r0, #0
1000044c:	d1f6      	bne.n	1000043c <irq_remove_handler+0x10>
1000044e:	f3bf 8f5f 	dmb	sy
10000452:	4a71      	ldr	r2, [pc, #452]	@ (10000618 <irq_remove_handler+0x1ec>)
10000454:	f103 0610 	add.w	r6, r3, #16
10000458:	6892      	ldr	r2, [r2, #8]
1000045a:	f8df 81d4 	ldr.w	r8, [pc, #468]	@ 10000630 <irq_remove_handler+0x204>
1000045e:	f852 0026 	ldr.w	r0, [r2, r6, lsl #2]
10000462:	4540      	cmp	r0, r8
10000464:	d04b      	beq.n	100004fe <irq_remove_handler+0xd2>
10000466:	4288      	cmp	r0, r1
10000468:	d057      	beq.n	1000051a <irq_remove_handler+0xee>
1000046a:	4d6c      	ldr	r5, [pc, #432]	@ (1000061c <irq_remove_handler+0x1f0>)
1000046c:	eba0 0c05 	sub.w	ip, r0, r5
10000470:	f1bc 0f2f 	cmp.w	ip, #47	@ 0x2f
10000474:	d843      	bhi.n	100004fe <irq_remove_handler+0xd2>
10000476:	f04f 0e01 	mov.w	lr, #1
1000047a:	ea4f 1c53 	mov.w	ip, r3, lsr #5
1000047e:	ea4f 0c8c 	mov.w	ip, ip, lsl #2
10000482:	f10c 4260 	add.w	r2, ip, #3758096384	@ 0xe0000000
10000486:	f502 4261 	add.w	r2, r2, #57600	@ 0xe100
1000048a:	f8d2 c000 	ldr.w	ip, [r2]
1000048e:	f003 031f 	and.w	r3, r3, #31
10000492:	fa0e f303 	lsl.w	r3, lr, r3
10000496:	9200      	str	r2, [sp, #0]
10000498:	9301      	str	r3, [sp, #4]
1000049a:	f8c2 3080 	str.w	r3, [r2, #128]	@ 0x80
1000049e:	ea03 090c 	and.w	r9, r3, ip
100004a2:	f3bf 8f5f 	dmb	sy
100004a6:	f3ef 8305 	mrs	r3, IPSR
100004aa:	b2db      	uxtb	r3, r3
100004ac:	469a      	mov	sl, r3
100004ae:	2b00      	cmp	r3, #0
100004b0:	d035      	beq.n	1000051e <irq_remove_handler+0xf2>
100004b2:	429e      	cmp	r6, r3
100004b4:	d005      	beq.n	100004c2 <irq_remove_handler+0x96>
100004b6:	e9cd 0102 	strd	r0, r1, [sp, #8]
100004ba:	f000 fe69 	bl	10001190 <hard_assertion_failure>
100004be:	e9dd 0102 	ldrd	r0, r1, [sp, #8]
100004c2:	f020 0e01 	bic.w	lr, r0, #1
100004c6:	f8de c008 	ldr.w	ip, [lr, #8]
100004ca:	4561      	cmp	r1, ip
100004cc:	d105      	bne.n	100004da <irq_remove_handler+0xae>
100004ce:	e08c      	b.n	100005ea <irq_remove_handler+0x1be>
100004d0:	f8d3 c008 	ldr.w	ip, [r3, #8]
100004d4:	4561      	cmp	r1, ip
100004d6:	d032      	beq.n	1000053e <irq_remove_handler+0x112>
100004d8:	469e      	mov	lr, r3
100004da:	f99e 2006 	ldrsb.w	r2, [lr, #6]
100004de:	eb02 0342 	add.w	r3, r2, r2, lsl #1
100004e2:	2a00      	cmp	r2, #0
100004e4:	eb05 0383 	add.w	r3, r5, r3, lsl #2
100004e8:	daf2      	bge.n	100004d0 <irq_remove_handler+0xa4>
100004ea:	4561      	cmp	r1, ip
100004ec:	d060      	beq.n	100005b0 <irq_remove_handler+0x184>
100004ee:	e9dd 3200 	ldrd	r3, r2, [sp]
100004f2:	f1b9 0f00 	cmp.w	r9, #0
100004f6:	d01f      	beq.n	10000538 <irq_remove_handler+0x10c>
100004f8:	f8c3 2180 	str.w	r2, [r3, #384]	@ 0x180
100004fc:	601a      	str	r2, [r3, #0]
100004fe:	4b46      	ldr	r3, [pc, #280]	@ (10000618 <irq_remove_handler+0x1ec>)
10000500:	689b      	ldr	r3, [r3, #8]
10000502:	f843 0026 	str.w	r0, [r3, r6, lsl #2]
10000506:	f3bf 8f5f 	dmb	sy
1000050a:	2300      	movs	r3, #0
1000050c:	e8c4 3f8f 	stlb	r3, [r4]
10000510:	f387 8810 	msr	PRIMASK, r7
10000514:	b005      	add	sp, #20
10000516:	e8bd 8ff0 	ldmia.w	sp!, {r4, r5, r6, r7, r8, r9, sl, fp, pc}
1000051a:	4640      	mov	r0, r8
1000051c:	e7ef      	b.n	100004fe <irq_remove_handler+0xd2>
1000051e:	f020 0e01 	bic.w	lr, r0, #1
10000522:	f8de c008 	ldr.w	ip, [lr, #8]
10000526:	4561      	cmp	r1, ip
10000528:	d1d7      	bne.n	100004da <irq_remove_handler+0xae>
1000052a:	f99e b006 	ldrsb.w	fp, [lr, #6]
1000052e:	459b      	cmp	fp, r3
10000530:	4673      	mov	r3, lr
10000532:	da09      	bge.n	10000548 <irq_remove_handler+0x11c>
10000534:	4640      	mov	r0, r8
10000536:	e046      	b.n	100005c6 <irq_remove_handler+0x19a>
10000538:	f8c3 2080 	str.w	r2, [r3, #128]	@ 0x80
1000053c:	e7df      	b.n	100004fe <irq_remove_handler+0xd2>
1000053e:	f993 b006 	ldrsb.w	fp, [r3, #6]
10000542:	f1bb 0f00 	cmp.w	fp, #0
10000546:	db34      	blt.n	100005b2 <irq_remove_handler+0x186>
10000548:	eb0b 0c4b 	add.w	ip, fp, fp, lsl #1
1000054c:	eb05 028c 	add.w	r2, r5, ip, lsl #2
10000550:	f892 e007 	ldrb.w	lr, [r2, #7]
10000554:	ea4f 018c 	mov.w	r1, ip, lsl #2
10000558:	9102      	str	r1, [sp, #8]
1000055a:	6891      	ldr	r1, [r2, #8]
1000055c:	f883 e007 	strb.w	lr, [r3, #7]
10000560:	f992 c006 	ldrsb.w	ip, [r2, #6]
10000564:	6099      	str	r1, [r3, #8]
10000566:	f1bc 0f00 	cmp.w	ip, #0
1000056a:	f883 c006 	strb.w	ip, [r3, #6]
1000056e:	ea4f 0e4b 	mov.w	lr, fp, lsl #1
10000572:	db38      	blt.n	100005e6 <irq_remove_handler+0x1ba>
10000574:	f06f 0c07 	mvn.w	ip, #7
10000578:	8892      	ldrh	r2, [r2, #4]
1000057a:	9902      	ldr	r1, [sp, #8]
1000057c:	f342 020a 	sbfx	r2, r2, #0, #11
10000580:	eb01 0242 	add.w	r2, r1, r2, lsl #1
10000584:	3208      	adds	r2, #8
10000586:	442a      	add	r2, r5
10000588:	ebac 0c03 	sub.w	ip, ip, r3
1000058c:	4462      	add	r2, ip
1000058e:	f3c2 024a 	ubfx	r2, r2, #1, #11
10000592:	ea6f 42c2 	mvn.w	r2, r2, lsl #19
10000596:	ea6f 42d2 	mvn.w	r2, r2, lsr #19
1000059a:	809a      	strh	r2, [r3, #4]
1000059c:	4b20      	ldr	r3, [pc, #128]	@ (10000620 <irq_remove_handler+0x1f4>)
1000059e:	44de      	add	lr, fp
100005a0:	781a      	ldrb	r2, [r3, #0]
100005a2:	eb05 0e8e 	add.w	lr, r5, lr, lsl #2
100005a6:	f883 b000 	strb.w	fp, [r3]
100005aa:	f88e 2006 	strb.w	r2, [lr, #6]
100005ae:	e79e      	b.n	100004ee <irq_remove_handler+0xc2>
100005b0:	4673      	mov	r3, lr
100005b2:	f1ba 0f00 	cmp.w	sl, #0
100005b6:	d11e      	bne.n	100005f6 <irq_remove_handler+0x1ca>
100005b8:	22ff      	movs	r2, #255	@ 0xff
100005ba:	f88e 2006 	strb.w	r2, [lr, #6]
100005be:	f64b 5201 	movw	r2, #48385	@ 0xbd01
100005c2:	f8ae 2004 	strh.w	r2, [lr, #4]
100005c6:	f8df c058 	ldr.w	ip, [pc, #88]	@ 10000620 <irq_remove_handler+0x1f4>
100005ca:	f64a 22aa 	movw	r2, #43690	@ 0xaaaa
100005ce:	f89c e000 	ldrb.w	lr, [ip]
100005d2:	4619      	mov	r1, r3
100005d4:	1b49      	subs	r1, r1, r5
100005d6:	4149      	adcs	r1, r1
100005d8:	434a      	muls	r2, r1
100005da:	0d12      	lsrs	r2, r2, #20
100005dc:	f883 e006 	strb.w	lr, [r3, #6]
100005e0:	f88c 2000 	strb.w	r2, [ip]
100005e4:	e783      	b.n	100004ee <irq_remove_handler+0xc2>
100005e6:	4a0f      	ldr	r2, [pc, #60]	@ (10000624 <irq_remove_handler+0x1f8>)
100005e8:	e7d7      	b.n	1000059a <irq_remove_handler+0x16e>
100005ea:	f99e b006 	ldrsb.w	fp, [lr, #6]
100005ee:	4673      	mov	r3, lr
100005f0:	f1bb 0f00 	cmp.w	fp, #0
100005f4:	daa8      	bge.n	10000548 <irq_remove_handler+0x11c>
100005f6:	4a0c      	ldr	r2, [pc, #48]	@ (10000628 <irq_remove_handler+0x1fc>)
100005f8:	4d0c      	ldr	r5, [pc, #48]	@ (1000062c <irq_remove_handler+0x200>)
100005fa:	1ad2      	subs	r2, r2, r3
100005fc:	3a08      	subs	r2, #8
100005fe:	f3c2 310a 	ubfx	r1, r2, #12, #11
10000602:	ea6f 5101 	mvn.w	r1, r1, lsl #20
10000606:	ea6f 5111 	mvn.w	r1, r1, lsr #20
1000060a:	ea45 0252 	orr.w	r2, r5, r2, lsr #1
1000060e:	80da      	strh	r2, [r3, #6]
10000610:	8099      	strh	r1, [r3, #4]
10000612:	e76c      	b.n	100004ee <irq_remove_handler+0xc2>
10000614:	20000439 	.word	0x20000439
10000618:	e000ed00 	.word	0xe000ed00
1000061c:	2000022c 	.word	0x2000022c
10000620:	200004d4 	.word	0x200004d4
10000624:	ffffbd01 	.word	0xffffbd01
10000628:	20000266 	.word	0x20000266
1000062c:	fffff800 	.word	0xfffff800
10000630:	10000111 	.word	0x10000111

10000634 <irq_add_tail_to_free_list>:
10000634:	e92d 41f0 	stmdb	sp!, {r4, r5, r6, r7, r8, lr}
10000638:	f3ef 8305 	mrs	r3, IPSR
1000063c:	b2db      	uxtb	r3, r3
1000063e:	469e      	mov	lr, r3
10000640:	f3ef 8510 	mrs	r5, PRIMASK
10000644:	b672      	cpsid	i
10000646:	4929      	ldr	r1, [pc, #164]	@ (100006ec <irq_add_tail_to_free_list+0xb8>)
10000648:	e8d1 2fcf 	ldaexb	r2, [r1]
1000064c:	2301      	movs	r3, #1
1000064e:	2a00      	cmp	r2, #0
10000650:	d1fa      	bne.n	10000648 <irq_add_tail_to_free_list+0x14>
10000652:	e8c1 3f42 	strexb	r2, r3, [r1]
10000656:	2a00      	cmp	r2, #0
10000658:	d1f6      	bne.n	10000648 <irq_add_tail_to_free_list+0x14>
1000065a:	f3bf 8f5f 	dmb	sy
1000065e:	f8df 809c 	ldr.w	r8, [pc, #156]	@ 100006fc <irq_add_tail_to_free_list+0xc8>
10000662:	f040 0601 	orr.w	r6, r0, #1
10000666:	f8d8 7008 	ldr.w	r7, [r8, #8]
1000066a:	f64a 23aa 	movw	r3, #43690	@ 0xaaaa
1000066e:	f857 702e 	ldr.w	r7, [r7, lr, lsl #2]
10000672:	4604      	mov	r4, r0
10000674:	4a1e      	ldr	r2, [pc, #120]	@ (100006f0 <irq_add_tail_to_free_list+0xbc>)
10000676:	1aa4      	subs	r4, r4, r2
10000678:	4164      	adcs	r4, r4
1000067a:	4363      	muls	r3, r4
1000067c:	0d1b      	lsrs	r3, r3, #20
1000067e:	42b7      	cmp	r7, r6
10000680:	b25b      	sxtb	r3, r3
10000682:	d01e      	beq.n	100006c2 <irq_add_tail_to_free_list+0x8e>
10000684:	f992 4006 	ldrsb.w	r4, [r2, #6]
10000688:	429c      	cmp	r4, r3
1000068a:	d020      	beq.n	100006ce <irq_add_tail_to_free_list+0x9a>
1000068c:	f992 4012 	ldrsb.w	r4, [r2, #18]
10000690:	429c      	cmp	r4, r3
10000692:	d027      	beq.n	100006e4 <irq_add_tail_to_free_list+0xb0>
10000694:	f992 401e 	ldrsb.w	r4, [r2, #30]
10000698:	429c      	cmp	r4, r3
1000069a:	d025      	beq.n	100006e8 <irq_add_tail_to_free_list+0xb4>
1000069c:	f992 402a 	ldrsb.w	r4, [r2, #42]	@ 0x2a
100006a0:	429c      	cmp	r4, r3
100006a2:	bf08      	it	eq
100006a4:	2403      	moveq	r4, #3
100006a6:	d013      	beq.n	100006d0 <irq_add_tail_to_free_list+0x9c>
100006a8:	4a12      	ldr	r2, [pc, #72]	@ (100006f4 <irq_add_tail_to_free_list+0xc0>)
100006aa:	2400      	movs	r4, #0
100006ac:	f892 c000 	ldrb.w	ip, [r2]
100006b0:	7013      	strb	r3, [r2, #0]
100006b2:	f880 c006 	strb.w	ip, [r0, #6]
100006b6:	e8c1 4f8f 	stlb	r4, [r1]
100006ba:	f385 8810 	msr	PRIMASK, r5
100006be:	e8bd 81f0 	ldmia.w	sp!, {r4, r5, r6, r7, r8, pc}
100006c2:	f8d8 2008 	ldr.w	r2, [r8, #8]
100006c6:	4c0c      	ldr	r4, [pc, #48]	@ (100006f8 <irq_add_tail_to_free_list+0xc4>)
100006c8:	f842 402e 	str.w	r4, [r2, lr, lsl #2]
100006cc:	e7ec      	b.n	100006a8 <irq_add_tail_to_free_list+0x74>
100006ce:	2400      	movs	r4, #0
100006d0:	eb04 0444 	add.w	r4, r4, r4, lsl #1
100006d4:	eb02 0284 	add.w	r2, r2, r4, lsl #2
100006d8:	24ff      	movs	r4, #255	@ 0xff
100006da:	7194      	strb	r4, [r2, #6]
100006dc:	f64b 5401 	movw	r4, #48385	@ 0xbd01
100006e0:	8094      	strh	r4, [r2, #4]
100006e2:	e7e1      	b.n	100006a8 <irq_add_tail_to_free_list+0x74>
100006e4:	2401      	movs	r4, #1
100006e6:	e7f3      	b.n	100006d0 <irq_add_tail_to_free_list+0x9c>
100006e8:	2402      	movs	r4, #2
100006ea:	e7f1      	b.n	100006d0 <irq_add_tail_to_free_list+0x9c>
100006ec:	20000439 	.word	0x20000439
100006f0:	2000022c 	.word	0x2000022c
100006f4:	200004d4 	.word	0x200004d4
100006f8:	10000111 	.word	0x10000111
100006fc:	e000ed00 	.word	0xe000ed00

10000700 <lock_init>:
10000700:	4b01      	ldr	r3, [pc, #4]	@ (10000708 <lock_init+0x8>)
10000702:	440b      	add	r3, r1
10000704:	6003      	str	r3, [r0, #0]
10000706:	4770      	bx	lr
10000708:	20000430 	.word	0x20000430

1000070c <runtime_init_mutex>:
1000070c:	b570      	push	{r4, r5, r6, lr}
1000070e:	4c10      	ldr	r4, [pc, #64]	@ (10000750 <runtime_init_mutex+0x44>)
10000710:	4d10      	ldr	r5, [pc, #64]	@ (10000754 <runtime_init_mutex+0x48>)
10000712:	42ac      	cmp	r4, r5
10000714:	d20e      	bcs.n	10000734 <runtime_init_mutex+0x28>
10000716:	26ff      	movs	r6, #255	@ 0xff
10000718:	6823      	ldr	r3, [r4, #0]
1000071a:	b163      	cbz	r3, 10000736 <runtime_init_mutex+0x2a>
1000071c:	f7ff fdf8 	bl	10000310 <next_striped_spin_lock_num>
10000720:	4601      	mov	r1, r0
10000722:	4620      	mov	r0, r4
10000724:	f7ff ffec 	bl	10000700 <lock_init>
10000728:	80a6      	strh	r6, [r4, #4]
1000072a:	f3bf 8f5f 	dmb	sy
1000072e:	3408      	adds	r4, #8
10000730:	42ac      	cmp	r4, r5
10000732:	d3f1      	bcc.n	10000718 <runtime_init_mutex+0xc>
10000734:	bd70      	pop	{r4, r5, r6, pc}
10000736:	f7ff fdeb 	bl	10000310 <next_striped_spin_lock_num>
1000073a:	4601      	mov	r1, r0
1000073c:	4620      	mov	r0, r4
1000073e:	f7ff ffdf 	bl	10000700 <lock_init>
10000742:	7126      	strb	r6, [r4, #4]
10000744:	f3bf 8f5f 	dmb	sy
10000748:	3408      	adds	r4, #8
1000074a:	42ac      	cmp	r4, r5
1000074c:	d3e4      	bcc.n	10000718 <runtime_init_mutex+0xc>
1000074e:	bd70      	pop	{r4, r5, r6, pc}
10000750:	200002a4 	.word	0x200002a4
10000754:	200002ac 	.word	0x200002ac

10000758 <sleep_until_callback>:
10000758:	4b0d      	ldr	r3, [pc, #52]	@ (10000790 <sleep_until_callback+0x38>)
1000075a:	681a      	ldr	r2, [r3, #0]
1000075c:	f3ef 8110 	mrs	r1, PRIMASK
10000760:	b672      	cpsid	i
10000762:	e8d2 cfcf 	ldaexb	ip, [r2]
10000766:	2001      	movs	r0, #1
10000768:	f1bc 0f00 	cmp.w	ip, #0
1000076c:	d1f9      	bne.n	10000762 <sleep_until_callback+0xa>
1000076e:	e8c2 0f4c 	strexb	ip, r0, [r2]
10000772:	f1bc 0f00 	cmp.w	ip, #0
10000776:	d1f4      	bne.n	10000762 <sleep_until_callback+0xa>
10000778:	f3bf 8f5f 	dmb	sy
1000077c:	2200      	movs	r2, #0
1000077e:	681b      	ldr	r3, [r3, #0]
10000780:	e8c3 2f8f 	stlb	r2, [r3]
10000784:	f381 8810 	msr	PRIMASK, r1
10000788:	bf40      	sev
1000078a:	2000      	movs	r0, #0
1000078c:	2100      	movs	r1, #0
1000078e:	4770      	bx	lr
10000790:	200004c8 	.word	0x200004c8
10000794:	00000000 	.word	0x00000000

10000798 <alarm_pool_irq_handler>:
10000798:	e92d 4ff0 	stmdb	sp!, {r4, r5, r6, r7, r8, r9, sl, fp, lr}
1000079c:	ed2d 8b02 	vpush	{d8}
100007a0:	b085      	sub	sp, #20
100007a2:	f3ef 8305 	mrs	r3, IPSR
100007a6:	b2db      	uxtb	r3, r3
100007a8:	3b10      	subs	r3, #16
100007aa:	089a      	lsrs	r2, r3, #2
100007ac:	bf18      	it	ne
100007ae:	2201      	movne	r2, #1
100007b0:	f04f 0101 	mov.w	r1, #1
100007b4:	f003 0b03 	and.w	fp, r3, #3
100007b8:	bf18      	it	ne
100007ba:	4ca9      	ldrne	r4, [pc, #676]	@ (10000a60 <alarm_pool_irq_handler+0x2c8>)
100007bc:	4ba9      	ldr	r3, [pc, #676]	@ (10000a64 <alarm_pool_irq_handler+0x2cc>)
100007be:	bf08      	it	eq
100007c0:	4ca9      	ldreq	r4, [pc, #676]	@ (10000a68 <alarm_pool_irq_handler+0x2d0>)
100007c2:	eb0b 0282 	add.w	r2, fp, r2, lsl #2
100007c6:	f853 5022 	ldr.w	r5, [r3, r2, lsl #2]
100007ca:	fa01 f20b 	lsl.w	r2, r1, fp
100007ce:	f504 5341 	add.w	r3, r4, #12352	@ 0x3040
100007d2:	ed9f 8ba1 	vldr	d8, [pc, #644]	@ 10000a58 <alarm_pool_irq_handler+0x2c0>
100007d6:	9202      	str	r2, [sp, #8]
100007d8:	605a      	str	r2, [r3, #4]
100007da:	e02f      	b.n	1000083c <alarm_pool_irq_handler+0xa4>
100007dc:	88ab      	ldrh	r3, [r5, #4]
100007de:	0419      	lsls	r1, r3, #16
100007e0:	f140 8094 	bpl.w	1000090c <alarm_pool_irq_handler+0x174>
100007e4:	79ab      	ldrb	r3, [r5, #6]
100007e6:	2b00      	cmp	r3, #0
100007e8:	f040 80de 	bne.w	100009a8 <alarm_pool_irq_handler+0x210>
100007ec:	f9b5 6008 	ldrsh.w	r6, [r5, #8]
100007f0:	2e00      	cmp	r6, #0
100007f2:	f2c0 811c 	blt.w	10000a2e <alarm_pool_irq_handler+0x296>
100007f6:	696b      	ldr	r3, [r5, #20]
100007f8:	eb06 0646 	add.w	r6, r6, r6, lsl #1
100007fc:	eb03 03c6 	add.w	r3, r3, r6, lsl #3
10000800:	e9d3 6702 	ldrd	r6, r7, [r3, #8]
10000804:	f1b7 3fff 	cmp.w	r7, #4294967295	@ 0xffffffff
10000808:	bf08      	it	eq
1000080a:	f1b6 3fff 	cmpeq.w	r6, #4294967295	@ 0xffffffff
1000080e:	d00e      	beq.n	1000082e <alarm_pool_irq_handler+0x96>
10000810:	eb04 018b 	add.w	r1, r4, fp, lsl #2
10000814:	6aa3      	ldr	r3, [r4, #40]	@ 0x28
10000816:	690a      	ldr	r2, [r1, #16]
10000818:	1ad2      	subs	r2, r2, r3
1000081a:	1af3      	subs	r3, r6, r3
1000081c:	4293      	cmp	r3, r2
1000081e:	d305      	bcc.n	1000082c <alarm_pool_irq_handler+0x94>
10000820:	2301      	movs	r3, #1
10000822:	6a22      	ldr	r2, [r4, #32]
10000824:	fa03 f30b 	lsl.w	r3, r3, fp
10000828:	4213      	tst	r3, r2
1000082a:	d100      	bne.n	1000082e <alarm_pool_irq_handler+0x96>
1000082c:	610e      	str	r6, [r1, #16]
1000082e:	4620      	mov	r0, r4
10000830:	f000 fae0 	bl	10000df4 <timer_time_us_64>
10000834:	42b0      	cmp	r0, r6
10000836:	41b9      	sbcs	r1, r7
10000838:	f2c0 80f9 	blt.w	10000a2e <alarm_pool_irq_handler+0x296>
1000083c:	f9b5 6008 	ldrsh.w	r6, [r5, #8]
10000840:	9b02      	ldr	r3, [sp, #8]
10000842:	2e00      	cmp	r6, #0
10000844:	63e3      	str	r3, [r4, #60]	@ 0x3c
10000846:	dbc9      	blt.n	100007dc <alarm_pool_irq_handler+0x44>
10000848:	f8d5 9014 	ldr.w	r9, [r5, #20]
1000084c:	eb06 0a46 	add.w	sl, r6, r6, lsl #1
10000850:	eb09 07ca 	add.w	r7, r9, sl, lsl #3
10000854:	68bb      	ldr	r3, [r7, #8]
10000856:	4620      	mov	r0, r4
10000858:	f8d7 800c 	ldr.w	r8, [r7, #12]
1000085c:	9301      	str	r3, [sp, #4]
1000085e:	f000 fac9 	bl	10000df4 <timer_time_us_64>
10000862:	9b01      	ldr	r3, [sp, #4]
10000864:	4298      	cmp	r0, r3
10000866:	eb71 0108 	sbcs.w	r1, r1, r8
1000086a:	dbb7      	blt.n	100007dc <alarm_pool_irq_handler+0x44>
1000086c:	f1b8 0f00 	cmp.w	r8, #0
10000870:	f2c0 80c0 	blt.w	100009f4 <alarm_pool_irq_handler+0x25c>
10000874:	e9d7 3104 	ldrd	r3, r1, [r7, #16]
10000878:	4a7c      	ldr	r2, [pc, #496]	@ (10000a6c <alarm_pool_irq_handler+0x2d4>)
1000087a:	4293      	cmp	r3, r2
1000087c:	f000 80f8 	beq.w	10000a70 <alarm_pool_irq_handler+0x2d8>
10000880:	887a      	ldrh	r2, [r7, #2]
10000882:	f9b5 0008 	ldrsh.w	r0, [r5, #8]
10000886:	b292      	uxth	r2, r2
10000888:	ea42 4000 	orr.w	r0, r2, r0, lsl #16
1000088c:	4798      	blx	r3
1000088e:	4602      	mov	r2, r0
10000890:	460b      	mov	r3, r1
10000892:	ea52 0103 	orrs.w	r1, r2, r3
10000896:	f000 80ad 	beq.w	100009f4 <alarm_pool_irq_handler+0x25c>
1000089a:	2b00      	cmp	r3, #0
1000089c:	f280 80cd 	bge.w	10000a3a <alarm_pool_irq_handler+0x2a2>
100008a0:	9901      	ldr	r1, [sp, #4]
100008a2:	ebb1 0e02 	subs.w	lr, r1, r2
100008a6:	eb68 0803 	sbc.w	r8, r8, r3
100008aa:	f939 303a 	ldrsh.w	r3, [r9, sl, lsl #3]
100008ae:	e9c7 e802 	strd	lr, r8, [r7, #8]
100008b2:	2b00      	cmp	r3, #0
100008b4:	db92      	blt.n	100007dc <alarm_pool_irq_handler+0x44>
100008b6:	6968      	ldr	r0, [r5, #20]
100008b8:	eb03 0243 	add.w	r2, r3, r3, lsl #1
100008bc:	eb00 02c2 	add.w	r2, r0, r2, lsl #3
100008c0:	e9d2 7102 	ldrd	r7, r1, [r2, #8]
100008c4:	45be      	cmp	lr, r7
100008c6:	eb78 0c01 	sbcs.w	ip, r8, r1
100008ca:	ea4f 0243 	mov.w	r2, r3, lsl #1
100008ce:	db85      	blt.n	100007dc <alarm_pool_irq_handler+0x44>
100008d0:	46ac      	mov	ip, r5
100008d2:	f82c 3f08 	strh.w	r3, [ip, #8]!
100008d6:	e006      	b.n	100008e6 <alarm_pool_irq_handler+0x14e>
100008d8:	eb03 0143 	add.w	r1, r3, r3, lsl #1
100008dc:	eb00 01c1 	add.w	r1, r0, r1, lsl #3
100008e0:	005a      	lsls	r2, r3, #1
100008e2:	e9d1 7102 	ldrd	r7, r1, [r1, #8]
100008e6:	45be      	cmp	lr, r7
100008e8:	eb78 0101 	sbcs.w	r1, r8, r1
100008ec:	441a      	add	r2, r3
100008ee:	db05      	blt.n	100008fc <alarm_pool_irq_handler+0x164>
100008f0:	f930 3032 	ldrsh.w	r3, [r0, r2, lsl #3]
100008f4:	eb00 0cc2 	add.w	ip, r0, r2, lsl #3
100008f8:	2b00      	cmp	r3, #0
100008fa:	daed      	bge.n	100008d8 <alarm_pool_irq_handler+0x140>
100008fc:	f829 303a 	strh.w	r3, [r9, sl, lsl #3]
10000900:	f8ac 6000 	strh.w	r6, [ip]
10000904:	88ab      	ldrh	r3, [r5, #4]
10000906:	0419      	lsls	r1, r3, #16
10000908:	f53f af6c 	bmi.w	100007e4 <alarm_pool_irq_handler+0x4c>
1000090c:	692b      	ldr	r3, [r5, #16]
1000090e:	f3ef 8210 	mrs	r2, PRIMASK
10000912:	b672      	cpsid	i
10000914:	e8d3 0fcf 	ldaexb	r0, [r3]
10000918:	2101      	movs	r1, #1
1000091a:	2800      	cmp	r0, #0
1000091c:	d1fa      	bne.n	10000914 <alarm_pool_irq_handler+0x17c>
1000091e:	e8c3 1f40 	strexb	r0, r1, [r3]
10000922:	2800      	cmp	r0, #0
10000924:	d1f6      	bne.n	10000914 <alarm_pool_irq_handler+0x17c>
10000926:	f3bf 8f5f 	dmb	sy
1000092a:	f64f 76ff 	movw	r6, #65535	@ 0xffff
1000092e:	88a8      	ldrh	r0, [r5, #4]
10000930:	2300      	movs	r3, #0
10000932:	6929      	ldr	r1, [r5, #16]
10000934:	b200      	sxth	r0, r0
10000936:	80ae      	strh	r6, [r5, #4]
10000938:	e8c1 3f8f 	stlb	r3, [r1]
1000093c:	f382 8810 	msr	PRIMASK, r2
10000940:	4298      	cmp	r0, r3
10000942:	f6ff af4f 	blt.w	100007e4 <alarm_pool_irq_handler+0x4c>
10000946:	4607      	mov	r7, r0
10000948:	46a1      	mov	r9, r4
1000094a:	696e      	ldr	r6, [r5, #20]
1000094c:	f105 0808 	add.w	r8, r5, #8
10000950:	f9b5 3008 	ldrsh.w	r3, [r5, #8]
10000954:	eb07 0e47 	add.w	lr, r7, r7, lsl #1
10000958:	2b00      	cmp	r3, #0
1000095a:	46c4      	mov	ip, r8
1000095c:	eb06 02ce 	add.w	r2, r6, lr, lsl #3
10000960:	db15      	blt.n	1000098e <alarm_pool_irq_handler+0x1f6>
10000962:	e9d2 4002 	ldrd	r4, r0, [r2, #8]
10000966:	46aa      	mov	sl, r5
10000968:	9701      	str	r7, [sp, #4]
1000096a:	e004      	b.n	10000976 <alarm_pool_irq_handler+0x1de>
1000096c:	f936 3035 	ldrsh.w	r3, [r6, r5, lsl #3]
10000970:	4694      	mov	ip, r2
10000972:	2b00      	cmp	r3, #0
10000974:	db09      	blt.n	1000098a <alarm_pool_irq_handler+0x1f2>
10000976:	eb03 0543 	add.w	r5, r3, r3, lsl #1
1000097a:	eb06 02c5 	add.w	r2, r6, r5, lsl #3
1000097e:	e9d2 7102 	ldrd	r7, r1, [r2, #8]
10000982:	42bc      	cmp	r4, r7
10000984:	eb70 0101 	sbcs.w	r1, r0, r1
10000988:	daf0      	bge.n	1000096c <alarm_pool_irq_handler+0x1d4>
1000098a:	4655      	mov	r5, sl
1000098c:	9f01      	ldr	r7, [sp, #4]
1000098e:	f8ac 7000 	strh.w	r7, [ip]
10000992:	f936 703e 	ldrsh.w	r7, [r6, lr, lsl #3]
10000996:	f826 303e 	strh.w	r3, [r6, lr, lsl #3]
1000099a:	2f00      	cmp	r7, #0
1000099c:	dad8      	bge.n	10000950 <alarm_pool_irq_handler+0x1b8>
1000099e:	79ab      	ldrb	r3, [r5, #6]
100009a0:	464c      	mov	r4, r9
100009a2:	2b00      	cmp	r3, #0
100009a4:	f43f af22 	beq.w	100007ec <alarm_pool_irq_handler+0x54>
100009a8:	2300      	movs	r3, #0
100009aa:	71ab      	strb	r3, [r5, #6]
100009ac:	f9b5 6008 	ldrsh.w	r6, [r5, #8]
100009b0:	1c72      	adds	r2, r6, #1
100009b2:	4633      	mov	r3, r6
100009b4:	d03b      	beq.n	10000a2e <alarm_pool_irq_handler+0x296>
100009b6:	6968      	ldr	r0, [r5, #20]
100009b8:	f105 0e08 	add.w	lr, r5, #8
100009bc:	e003      	b.n	100009c6 <alarm_pool_irq_handler+0x22e>
100009be:	468e      	mov	lr, r1
100009c0:	1c5a      	adds	r2, r3, #1
100009c2:	f43f af15 	beq.w	100007f0 <alarm_pool_irq_handler+0x58>
100009c6:	eb03 0243 	add.w	r2, r3, r3, lsl #1
100009ca:	eb00 01c2 	add.w	r1, r0, r2, lsl #3
100009ce:	884f      	ldrh	r7, [r1, #2]
100009d0:	469c      	mov	ip, r3
100009d2:	043f      	lsls	r7, r7, #16
100009d4:	f930 3032 	ldrsh.w	r3, [r0, r2, lsl #3]
100009d8:	d5f1      	bpl.n	100009be <alarm_pool_irq_handler+0x226>
100009da:	4566      	cmp	r6, ip
100009dc:	ed81 8b02 	vstr	d8, [r1, #8]
100009e0:	d0ee      	beq.n	100009c0 <alarm_pool_irq_handler+0x228>
100009e2:	f8ae 3000 	strh.w	r3, [lr]
100009e6:	8929      	ldrh	r1, [r5, #8]
100009e8:	4666      	mov	r6, ip
100009ea:	f820 1032 	strh.w	r1, [r0, r2, lsl #3]
100009ee:	f8a5 c008 	strh.w	ip, [r5, #8]
100009f2:	e7e5      	b.n	100009c0 <alarm_pool_irq_handler+0x228>
100009f4:	f839 303a 	ldrh.w	r3, [r9, sl, lsl #3]
100009f8:	812b      	strh	r3, [r5, #8]
100009fa:	692b      	ldr	r3, [r5, #16]
100009fc:	f3ef 8210 	mrs	r2, PRIMASK
10000a00:	b672      	cpsid	i
10000a02:	e8d3 0fcf 	ldaexb	r0, [r3]
10000a06:	2101      	movs	r1, #1
10000a08:	2800      	cmp	r0, #0
10000a0a:	d1fa      	bne.n	10000a02 <alarm_pool_irq_handler+0x26a>
10000a0c:	e8c3 1f40 	strexb	r0, r1, [r3]
10000a10:	2800      	cmp	r0, #0
10000a12:	d1f6      	bne.n	10000a02 <alarm_pool_irq_handler+0x26a>
10000a14:	f3bf 8f5f 	dmb	sy
10000a18:	886b      	ldrh	r3, [r5, #2]
10000a1a:	6929      	ldr	r1, [r5, #16]
10000a1c:	f829 303a 	strh.w	r3, [r9, sl, lsl #3]
10000a20:	2300      	movs	r3, #0
10000a22:	806e      	strh	r6, [r5, #2]
10000a24:	e8c1 3f8f 	stlb	r3, [r1]
10000a28:	f382 8810 	msr	PRIMASK, r2
10000a2c:	e6d6      	b.n	100007dc <alarm_pool_irq_handler+0x44>
10000a2e:	bf40      	sev
10000a30:	b005      	add	sp, #20
10000a32:	ecbd 8b02 	vpop	{d8}
10000a36:	e8bd 8ff0 	ldmia.w	sp!, {r4, r5, r6, r7, r8, r9, sl, fp, pc}
10000a3a:	4620      	mov	r0, r4
10000a3c:	9303      	str	r3, [sp, #12]
10000a3e:	9201      	str	r2, [sp, #4]
10000a40:	f000 f9d8 	bl	10000df4 <timer_time_us_64>
10000a44:	9a01      	ldr	r2, [sp, #4]
10000a46:	9b03      	ldr	r3, [sp, #12]
10000a48:	eb10 0e02 	adds.w	lr, r0, r2
10000a4c:	eb43 0801 	adc.w	r8, r3, r1
10000a50:	e72b      	b.n	100008aa <alarm_pool_irq_handler+0x112>
10000a52:	bf00      	nop
10000a54:	f3af 8000 	nop.w
10000a58:	ffffffff 	.word	0xffffffff
10000a5c:	ffffffff 	.word	0xffffffff
10000a60:	400b8000 	.word	0x400b8000
10000a64:	200004a8 	.word	0x200004a8
10000a68:	400b0000 	.word	0x400b0000
10000a6c:	10000799 	.word	0x10000799
10000a70:	4608      	mov	r0, r1
10000a72:	690b      	ldr	r3, [r1, #16]
10000a74:	9103      	str	r1, [sp, #12]
10000a76:	4798      	blx	r3
10000a78:	2800      	cmp	r0, #0
10000a7a:	d0bb      	beq.n	100009f4 <alarm_pool_irq_handler+0x25c>
10000a7c:	9903      	ldr	r1, [sp, #12]
10000a7e:	e9d1 2300 	ldrd	r2, r3, [r1]
10000a82:	e706      	b.n	10000892 <alarm_pool_irq_handler+0xfa>

10000a84 <runtime_init_default_alarm_pool>:
10000a84:	b538      	push	{r3, r4, r5, lr}
10000a86:	4b38      	ldr	r3, [pc, #224]	@ (10000b68 <runtime_init_default_alarm_pool+0xe4>)
10000a88:	691c      	ldr	r4, [r3, #16]
10000a8a:	b12c      	cbz	r4, 10000a98 <runtime_init_default_alarm_pool+0x14>
10000a8c:	e8bd 4038 	ldmia.w	sp!, {r3, r4, r5, lr}
10000a90:	210a      	movs	r1, #10
10000a92:	4836      	ldr	r0, [pc, #216]	@ (10000b6c <runtime_init_default_alarm_pool+0xe8>)
10000a94:	f7ff be34 	b.w	10000700 <lock_init>
10000a98:	2103      	movs	r1, #3
10000a9a:	4835      	ldr	r0, [pc, #212]	@ (10000b70 <runtime_init_default_alarm_pool+0xec>)
10000a9c:	f000 f998 	bl	10000dd0 <timer_hardware_alarm_claim>
10000aa0:	4d33      	ldr	r5, [pc, #204]	@ (10000b70 <runtime_init_default_alarm_pool+0xec>)
10000aa2:	4b31      	ldr	r3, [pc, #196]	@ (10000b68 <runtime_init_default_alarm_pool+0xe4>)
10000aa4:	60dd      	str	r5, [r3, #12]
10000aa6:	f7ff fc33 	bl	10000310 <next_striped_spin_lock_num>
10000aaa:	4a32      	ldr	r2, [pc, #200]	@ (10000b74 <runtime_init_default_alarm_pool+0xf0>)
10000aac:	f04f 4e50 	mov.w	lr, #3489660928	@ 0xd0000000
10000ab0:	4402      	add	r2, r0
10000ab2:	2003      	movs	r0, #3
10000ab4:	4b2c      	ldr	r3, [pc, #176]	@ (10000b68 <runtime_init_default_alarm_pool+0xe4>)
10000ab6:	f04f 0c0f 	mov.w	ip, #15
10000aba:	7018      	strb	r0, [r3, #0]
10000abc:	611a      	str	r2, [r3, #16]
10000abe:	f8de 2000 	ldr.w	r2, [lr]
10000ac2:	f64f 71ff 	movw	r1, #65535	@ 0xffff
10000ac6:	705a      	strb	r2, [r3, #1]
10000ac8:	695a      	ldr	r2, [r3, #20]
10000aca:	f8a3 c002 	strh.w	ip, [r3, #2]
10000ace:	8314      	strh	r4, [r2, #24]
10000ad0:	f04f 0402 	mov.w	r4, #2
10000ad4:	f8a2 4048 	strh.w	r4, [r2, #72]	@ 0x48
10000ad8:	f04f 0404 	mov.w	r4, #4
10000adc:	f8a2 4078 	strh.w	r4, [r2, #120]	@ 0x78
10000ae0:	f04f 0405 	mov.w	r4, #5
10000ae4:	f8a2 4090 	strh.w	r4, [r2, #144]	@ 0x90
10000ae8:	f04f 0406 	mov.w	r4, #6
10000aec:	f8a2 40a8 	strh.w	r4, [r2, #168]	@ 0xa8
10000af0:	f04f 0407 	mov.w	r4, #7
10000af4:	f8a2 40c0 	strh.w	r4, [r2, #192]	@ 0xc0
10000af8:	f04f 0409 	mov.w	r4, #9
10000afc:	f8a2 40f0 	strh.w	r4, [r2, #240]	@ 0xf0
10000b00:	f04f 040a 	mov.w	r4, #10
10000b04:	f8a2 4108 	strh.w	r4, [r2, #264]	@ 0x108
10000b08:	f04f 040b 	mov.w	r4, #11
10000b0c:	f8a2 4120 	strh.w	r4, [r2, #288]	@ 0x120
10000b10:	f04f 040c 	mov.w	r4, #12
10000b14:	f8a2 4138 	strh.w	r4, [r2, #312]	@ 0x138
10000b18:	f04f 0401 	mov.w	r4, #1
10000b1c:	8614      	strh	r4, [r2, #48]	@ 0x30
10000b1e:	f04f 0408 	mov.w	r4, #8
10000b22:	f8a2 40d8 	strh.w	r4, [r2, #216]	@ 0xd8
10000b26:	4c14      	ldr	r4, [pc, #80]	@ (10000b78 <runtime_init_default_alarm_pool+0xf4>)
10000b28:	f04f 0e0d 	mov.w	lr, #13
10000b2c:	f04f 0c0e 	mov.w	ip, #14
10000b30:	609c      	str	r4, [r3, #8]
10000b32:	2408      	movs	r4, #8
10000b34:	8099      	strh	r1, [r3, #4]
10000b36:	f8a2 e150 	strh.w	lr, [r2, #336]	@ 0x150
10000b3a:	f8a2 c168 	strh.w	ip, [r2, #360]	@ 0x168
10000b3e:	f8a2 0060 	strh.w	r0, [r2, #96]	@ 0x60
10000b42:	8011      	strh	r1, [r2, #0]
10000b44:	4a0d      	ldr	r2, [pc, #52]	@ (10000b7c <runtime_init_default_alarm_pool+0xf8>)
10000b46:	622c      	str	r4, [r5, #32]
10000b48:	490d      	ldr	r1, [pc, #52]	@ (10000b80 <runtime_init_default_alarm_pool+0xfc>)
10000b4a:	60d3      	str	r3, [r2, #12]
10000b4c:	f7ff fc36 	bl	100003bc <irq_set_exclusive_handler>
10000b50:	2101      	movs	r1, #1
10000b52:	2003      	movs	r0, #3
10000b54:	f7ff fc1c 	bl	10000390 <irq_set_enabled>
10000b58:	4b0a      	ldr	r3, [pc, #40]	@ (10000b84 <runtime_init_default_alarm_pool+0x100>)
10000b5a:	210a      	movs	r1, #10
10000b5c:	641c      	str	r4, [r3, #64]	@ 0x40
10000b5e:	4803      	ldr	r0, [pc, #12]	@ (10000b6c <runtime_init_default_alarm_pool+0xe8>)
10000b60:	e8bd 4038 	ldmia.w	sp!, {r3, r4, r5, lr}
10000b64:	f7ff bdcc 	b.w	10000700 <lock_init>
10000b68:	20000274 	.word	0x20000274
10000b6c:	200004c8 	.word	0x200004c8
10000b70:	400b0000 	.word	0x400b0000
10000b74:	20000430 	.word	0x20000430
10000b78:	0010ffff 	.word	0x0010ffff
10000b7c:	200004a8 	.word	0x200004a8
10000b80:	10000799 	.word	0x10000799
10000b84:	400b2000 	.word	0x400b2000

10000b88 <alarm_pool_add_alarm_at_force_in_context>:
10000b88:	b5f0      	push	{r4, r5, r6, r7, lr}
10000b8a:	4616      	mov	r6, r2
10000b8c:	461f      	mov	r7, r3
10000b8e:	6902      	ldr	r2, [r0, #16]
10000b90:	4603      	mov	r3, r0
10000b92:	f3ef 8010 	mrs	r0, PRIMASK
10000b96:	b672      	cpsid	i
10000b98:	e8d2 4fcf 	ldaexb	r4, [r2]
10000b9c:	2101      	movs	r1, #1
10000b9e:	2c00      	cmp	r4, #0
10000ba0:	d1fa      	bne.n	10000b98 <alarm_pool_add_alarm_at_force_in_context+0x10>
10000ba2:	e8c2 1f44 	strexb	r4, r1, [r2]
10000ba6:	2c00      	cmp	r4, #0
10000ba8:	d1f6      	bne.n	10000b98 <alarm_pool_add_alarm_at_force_in_context+0x10>
10000baa:	f3bf 8f5f 	dmb	sy
10000bae:	f9b3 1002 	ldrsh.w	r1, [r3, #2]
10000bb2:	691d      	ldr	r5, [r3, #16]
10000bb4:	2900      	cmp	r1, #0
10000bb6:	db45      	blt.n	10000c44 <alarm_pool_add_alarm_at_force_in_context+0xbc>
10000bb8:	f8d3 e014 	ldr.w	lr, [r3, #20]
10000bbc:	eb01 0241 	add.w	r2, r1, r1, lsl #1
10000bc0:	f83e 4032 	ldrh.w	r4, [lr, r2, lsl #3]
10000bc4:	eb0e 0cc2 	add.w	ip, lr, r2, lsl #3
10000bc8:	805c      	strh	r4, [r3, #2]
10000bca:	2400      	movs	r4, #0
10000bcc:	e8c5 4f8f 	stlb	r4, [r5]
10000bd0:	f380 8810 	msr	PRIMASK, r0
10000bd4:	9805      	ldr	r0, [sp, #20]
10000bd6:	4635      	mov	r5, r6
10000bd8:	f8cc 0010 	str.w	r0, [ip, #16]
10000bdc:	9806      	ldr	r0, [sp, #24]
10000bde:	463e      	mov	r6, r7
10000be0:	f8cc 0014 	str.w	r0, [ip, #20]
10000be4:	f8bc 0002 	ldrh.w	r0, [ip, #2]
10000be8:	e9cc 5602 	strd	r5, r6, [ip, #8]
10000bec:	3001      	adds	r0, #1
10000bee:	f3c0 000e 	ubfx	r0, r0, #0, #15
10000bf2:	2801      	cmp	r0, #1
10000bf4:	bf38      	it	cc
10000bf6:	2001      	movcc	r0, #1
10000bf8:	f8ac 0002 	strh.w	r0, [ip, #2]
10000bfc:	ea40 4001 	orr.w	r0, r0, r1, lsl #16
10000c00:	f8d3 c010 	ldr.w	ip, [r3, #16]
10000c04:	f3ef 8510 	mrs	r5, PRIMASK
10000c08:	b672      	cpsid	i
10000c0a:	e8dc 7fcf 	ldaexb	r7, [ip]
10000c0e:	2601      	movs	r6, #1
10000c10:	2f00      	cmp	r7, #0
10000c12:	d1fa      	bne.n	10000c0a <alarm_pool_add_alarm_at_force_in_context+0x82>
10000c14:	e8cc 6f47 	strexb	r7, r6, [ip]
10000c18:	2f00      	cmp	r7, #0
10000c1a:	d1f6      	bne.n	10000c0a <alarm_pool_add_alarm_at_force_in_context+0x82>
10000c1c:	f3bf 8f5f 	dmb	sy
10000c20:	f8b3 c004 	ldrh.w	ip, [r3, #4]
10000c24:	f82e c032 	strh.w	ip, [lr, r2, lsl #3]
10000c28:	8099      	strh	r1, [r3, #4]
10000c2a:	691a      	ldr	r2, [r3, #16]
10000c2c:	e8c2 4f8f 	stlb	r4, [r2]
10000c30:	f385 8810 	msr	PRIMASK, r5
10000c34:	2101      	movs	r1, #1
10000c36:	781c      	ldrb	r4, [r3, #0]
10000c38:	68da      	ldr	r2, [r3, #12]
10000c3a:	40a1      	lsls	r1, r4
10000c3c:	f502 5301 	add.w	r3, r2, #8256	@ 0x2040
10000c40:	6059      	str	r1, [r3, #4]
10000c42:	bdf0      	pop	{r4, r5, r6, r7, pc}
10000c44:	2300      	movs	r3, #0
10000c46:	e8c5 3f8f 	stlb	r3, [r5]
10000c4a:	f380 8810 	msr	PRIMASK, r0
10000c4e:	f04f 30ff 	mov.w	r0, #4294967295	@ 0xffffffff
10000c52:	bdf0      	pop	{r4, r5, r6, r7, pc}

10000c54 <alarm_pool_cancel_alarm>:
10000c54:	4603      	mov	r3, r0
10000c56:	8940      	ldrh	r0, [r0, #10]
10000c58:	ebb0 4f21 	cmp.w	r0, r1, asr #16
10000c5c:	dd3a      	ble.n	10000cd4 <alarm_pool_cancel_alarm+0x80>
10000c5e:	6958      	ldr	r0, [r3, #20]
10000c60:	140a      	asrs	r2, r1, #16
10000c62:	eb02 0242 	add.w	r2, r2, r2, lsl #1
10000c66:	b510      	push	{r4, lr}
10000c68:	f8d3 c010 	ldr.w	ip, [r3, #16]
10000c6c:	eb00 00c2 	add.w	r0, r0, r2, lsl #3
10000c70:	f3ef 8e10 	mrs	lr, PRIMASK
10000c74:	b672      	cpsid	i
10000c76:	e8dc 4fcf 	ldaexb	r4, [ip]
10000c7a:	2201      	movs	r2, #1
10000c7c:	2c00      	cmp	r4, #0
10000c7e:	d1fa      	bne.n	10000c76 <alarm_pool_cancel_alarm+0x22>
10000c80:	e8cc 2f44 	strexb	r4, r2, [ip]
10000c84:	2c00      	cmp	r4, #0
10000c86:	d1f6      	bne.n	10000c76 <alarm_pool_cancel_alarm+0x22>
10000c88:	f3bf 8f5f 	dmb	sy
10000c8c:	8842      	ldrh	r2, [r0, #2]
10000c8e:	b289      	uxth	r1, r1
10000c90:	b292      	uxth	r2, r2
10000c92:	428a      	cmp	r2, r1
10000c94:	d007      	beq.n	10000ca6 <alarm_pool_cancel_alarm+0x52>
10000c96:	2200      	movs	r2, #0
10000c98:	691b      	ldr	r3, [r3, #16]
10000c9a:	e8c3 2f8f 	stlb	r2, [r3]
10000c9e:	f38e 8810 	msr	PRIMASK, lr
10000ca2:	2000      	movs	r0, #0
10000ca4:	bd10      	pop	{r4, pc}
10000ca6:	ea6f 4242 	mvn.w	r2, r2, lsl #17
10000caa:	ea6f 4252 	mvn.w	r2, r2, lsr #17
10000cae:	8042      	strh	r2, [r0, #2]
10000cb0:	2101      	movs	r1, #1
10000cb2:	2200      	movs	r2, #0
10000cb4:	6918      	ldr	r0, [r3, #16]
10000cb6:	7199      	strb	r1, [r3, #6]
10000cb8:	e8c0 2f8f 	stlb	r2, [r0]
10000cbc:	f38e 8810 	msr	PRIMASK, lr
10000cc0:	f893 c000 	ldrb.w	ip, [r3]
10000cc4:	68da      	ldr	r2, [r3, #12]
10000cc6:	4608      	mov	r0, r1
10000cc8:	f502 5301 	add.w	r3, r2, #8256	@ 0x2040
10000ccc:	fa01 f10c 	lsl.w	r1, r1, ip
10000cd0:	6059      	str	r1, [r3, #4]
10000cd2:	bd10      	pop	{r4, pc}
10000cd4:	2000      	movs	r0, #0
10000cd6:	4770      	bx	lr

10000cd8 <best_effort_wfe_or_timeout>:
10000cd8:	f3ef 8205 	mrs	r2, IPSR
10000cdc:	b2d2      	uxtb	r2, r2
10000cde:	b182      	cbz	r2, 10000d02 <best_effort_wfe_or_timeout+0x2a>
10000ce0:	4b38      	ldr	r3, [pc, #224]	@ (10000dc4 <best_effort_wfe_or_timeout+0xec>)
10000ce2:	6a5a      	ldr	r2, [r3, #36]	@ 0x24
10000ce4:	428a      	cmp	r2, r1
10000ce6:	d202      	bcs.n	10000cee <best_effort_wfe_or_timeout+0x16>
10000ce8:	2200      	movs	r2, #0
10000cea:	4610      	mov	r0, r2
10000cec:	4770      	bx	lr
10000cee:	bf14      	ite	ne
10000cf0:	2201      	movne	r2, #1
10000cf2:	2200      	moveq	r2, #0
10000cf4:	6a9b      	ldr	r3, [r3, #40]	@ 0x28
10000cf6:	4283      	cmp	r3, r0
10000cf8:	bf28      	it	cs
10000cfa:	f042 0201 	orrcs.w	r2, r2, #1
10000cfe:	4610      	mov	r0, r2
10000d00:	4770      	bx	lr
10000d02:	b570      	push	{r4, r5, r6, lr}
10000d04:	b084      	sub	sp, #16
10000d06:	9203      	str	r2, [sp, #12]
10000d08:	4a2f      	ldr	r2, [pc, #188]	@ (10000dc8 <best_effort_wfe_or_timeout+0xf0>)
10000d0a:	4606      	mov	r6, r0
10000d0c:	68d3      	ldr	r3, [r2, #12]
10000d0e:	7815      	ldrb	r5, [r2, #0]
10000d10:	4618      	mov	r0, r3
10000d12:	460c      	mov	r4, r1
10000d14:	9302      	str	r3, [sp, #8]
10000d16:	f000 f86d 	bl	10000df4 <timer_time_us_64>
10000d1a:	9b02      	ldr	r3, [sp, #8]
10000d1c:	f105 0c04 	add.w	ip, r5, #4
10000d20:	f853 c02c 	ldr.w	ip, [r3, ip, lsl #2]
10000d24:	9a03      	ldr	r2, [sp, #12]
10000d26:	ebac 0c00 	sub.w	ip, ip, r0
10000d2a:	1a30      	subs	r0, r6, r0
10000d2c:	eb64 0101 	sbc.w	r1, r4, r1
10000d30:	4560      	cmp	r0, ip
10000d32:	f171 0100 	sbcs.w	r1, r1, #0
10000d36:	db0f      	blt.n	10000d58 <best_effort_wfe_or_timeout+0x80>
10000d38:	bf20      	wfe
10000d3a:	4b22      	ldr	r3, [pc, #136]	@ (10000dc4 <best_effort_wfe_or_timeout+0xec>)
10000d3c:	6a59      	ldr	r1, [r3, #36]	@ 0x24
10000d3e:	42a1      	cmp	r1, r4
10000d40:	d307      	bcc.n	10000d52 <best_effort_wfe_or_timeout+0x7a>
10000d42:	bf14      	ite	ne
10000d44:	2201      	movne	r2, #1
10000d46:	2200      	moveq	r2, #0
10000d48:	6a9b      	ldr	r3, [r3, #40]	@ 0x28
10000d4a:	42b3      	cmp	r3, r6
10000d4c:	bf28      	it	cs
10000d4e:	f042 0201 	orrcs.w	r2, r2, #1
10000d52:	4610      	mov	r0, r2
10000d54:	b004      	add	sp, #16
10000d56:	bd70      	pop	{r4, r5, r6, pc}
10000d58:	9202      	str	r2, [sp, #8]
10000d5a:	f000 f853 	bl	10000e04 <time_us_64>
10000d5e:	4286      	cmp	r6, r0
10000d60:	eb64 0101 	sbc.w	r1, r4, r1
10000d64:	2900      	cmp	r1, #0
10000d66:	9a02      	ldr	r2, [sp, #8]
10000d68:	db1b      	blt.n	10000da2 <best_effort_wfe_or_timeout+0xca>
10000d6a:	4918      	ldr	r1, [pc, #96]	@ (10000dcc <best_effort_wfe_or_timeout+0xf4>)
10000d6c:	4623      	mov	r3, r4
10000d6e:	e9cd 1200 	strd	r1, r2, [sp]
10000d72:	4815      	ldr	r0, [pc, #84]	@ (10000dc8 <best_effort_wfe_or_timeout+0xf0>)
10000d74:	4632      	mov	r2, r6
10000d76:	f7ff ff07 	bl	10000b88 <alarm_pool_add_alarm_at_force_in_context>
10000d7a:	1e01      	subs	r1, r0, #0
10000d7c:	dd11      	ble.n	10000da2 <best_effort_wfe_or_timeout+0xca>
10000d7e:	4b11      	ldr	r3, [pc, #68]	@ (10000dc4 <best_effort_wfe_or_timeout+0xec>)
10000d80:	6a5a      	ldr	r2, [r3, #36]	@ 0x24
10000d82:	42a2      	cmp	r2, r4
10000d84:	d31c      	bcc.n	10000dc0 <best_effort_wfe_or_timeout+0xe8>
10000d86:	6a9b      	ldr	r3, [r3, #40]	@ 0x28
10000d88:	42b3      	cmp	r3, r6
10000d8a:	d317      	bcc.n	10000dbc <best_effort_wfe_or_timeout+0xe4>
10000d8c:	480e      	ldr	r0, [pc, #56]	@ (10000dc8 <best_effort_wfe_or_timeout+0xf0>)
10000d8e:	f7ff ff61 	bl	10000c54 <alarm_pool_cancel_alarm>
10000d92:	4b0c      	ldr	r3, [pc, #48]	@ (10000dc4 <best_effort_wfe_or_timeout+0xec>)
10000d94:	6a5a      	ldr	r2, [r3, #36]	@ 0x24
10000d96:	42a2      	cmp	r2, r4
10000d98:	d2d3      	bcs.n	10000d42 <best_effort_wfe_or_timeout+0x6a>
10000d9a:	2200      	movs	r2, #0
10000d9c:	4610      	mov	r0, r2
10000d9e:	b004      	add	sp, #16
10000da0:	bd70      	pop	{r4, r5, r6, pc}
10000da2:	4b08      	ldr	r3, [pc, #32]	@ (10000dc4 <best_effort_wfe_or_timeout+0xec>)
10000da4:	6a5a      	ldr	r2, [r3, #36]	@ 0x24
10000da6:	42a2      	cmp	r2, r4
10000da8:	d3f7      	bcc.n	10000d9a <best_effort_wfe_or_timeout+0xc2>
10000daa:	1b12      	subs	r2, r2, r4
10000dac:	bf18      	it	ne
10000dae:	2201      	movne	r2, #1
10000db0:	6a9b      	ldr	r3, [r3, #40]	@ 0x28
10000db2:	42b3      	cmp	r3, r6
10000db4:	bf28      	it	cs
10000db6:	f042 0201 	orrcs.w	r2, r2, #1
10000dba:	e7ca      	b.n	10000d52 <best_effort_wfe_or_timeout+0x7a>
10000dbc:	42a2      	cmp	r2, r4
10000dbe:	d1e5      	bne.n	10000d8c <best_effort_wfe_or_timeout+0xb4>
10000dc0:	bf20      	wfe
10000dc2:	e7e3      	b.n	10000d8c <best_effort_wfe_or_timeout+0xb4>
10000dc4:	400b0000 	.word	0x400b0000
10000dc8:	20000274 	.word	0x20000274
10000dcc:	10000759 	.word	0x10000759

10000dd0 <timer_hardware_alarm_claim>:
10000dd0:	b410      	push	{r4}
10000dd2:	4b05      	ldr	r3, [pc, #20]	@ (10000de8 <timer_hardware_alarm_claim+0x18>)
10000dd4:	4c05      	ldr	r4, [pc, #20]	@ (10000dec <timer_hardware_alarm_claim+0x1c>)
10000dd6:	4a06      	ldr	r2, [pc, #24]	@ (10000df0 <timer_hardware_alarm_claim+0x20>)
10000dd8:	42a0      	cmp	r0, r4
10000dda:	bf14      	ite	ne
10000ddc:	4618      	movne	r0, r3
10000dde:	1c58      	addeq	r0, r3, #1
10000de0:	bc10      	pop	{r4}
10000de2:	f7ff ba69 	b.w	100002b8 <hw_claim_or_assert>
10000de6:	bf00      	nop
10000de8:	20000458 	.word	0x20000458
10000dec:	400b8000 	.word	0x400b8000
10000df0:	10001a88 	.word	0x10001a88

10000df4 <timer_time_us_64>:
10000df4:	4603      	mov	r3, r0
10000df6:	6a41      	ldr	r1, [r0, #36]	@ 0x24
10000df8:	460a      	mov	r2, r1
10000dfa:	6a98      	ldr	r0, [r3, #40]	@ 0x28
10000dfc:	6a59      	ldr	r1, [r3, #36]	@ 0x24
10000dfe:	428a      	cmp	r2, r1
10000e00:	d1fa      	bne.n	10000df8 <timer_time_us_64+0x4>
10000e02:	4770      	bx	lr

10000e04 <time_us_64>:
10000e04:	4b03      	ldr	r3, [pc, #12]	@ (10000e14 <time_us_64+0x10>)
10000e06:	6a59      	ldr	r1, [r3, #36]	@ 0x24
10000e08:	460a      	mov	r2, r1
10000e0a:	6a98      	ldr	r0, [r3, #40]	@ 0x28
10000e0c:	6a59      	ldr	r1, [r3, #36]	@ 0x24
10000e0e:	4291      	cmp	r1, r2
10000e10:	d1fa      	bne.n	10000e08 <time_us_64+0x4>
10000e12:	4770      	bx	lr
10000e14:	400b0000 	.word	0x400b0000

10000e18 <busy_wait_us>:
10000e18:	b500      	push	{lr}
10000e1a:	468e      	mov	lr, r1
10000e1c:	4a15      	ldr	r2, [pc, #84]	@ (10000e74 <busy_wait_us+0x5c>)
10000e1e:	6a53      	ldr	r3, [r2, #36]	@ 0x24
10000e20:	469c      	mov	ip, r3
10000e22:	6a91      	ldr	r1, [r2, #40]	@ 0x28
10000e24:	6a53      	ldr	r3, [r2, #36]	@ 0x24
10000e26:	4563      	cmp	r3, ip
10000e28:	d1fa      	bne.n	10000e20 <busy_wait_us+0x8>
10000e2a:	1840      	adds	r0, r0, r1
10000e2c:	eb53 030e 	adcs.w	r3, r3, lr
10000e30:	f04f 0200 	mov.w	r2, #0
10000e34:	bf28      	it	cs
10000e36:	2201      	movcs	r2, #1
10000e38:	b1ba      	cbz	r2, 10000e6a <busy_wait_us+0x52>
10000e3a:	4b0e      	ldr	r3, [pc, #56]	@ (10000e74 <busy_wait_us+0x5c>)
10000e3c:	6a5a      	ldr	r2, [r3, #36]	@ 0x24
10000e3e:	1c53      	adds	r3, r2, #1
10000e40:	bf08      	it	eq
10000e42:	4610      	moveq	r0, r2
10000e44:	d008      	beq.n	10000e58 <busy_wait_us+0x40>
10000e46:	f04f 33ff 	mov.w	r3, #4294967295	@ 0xffffffff
10000e4a:	4618      	mov	r0, r3
10000e4c:	4909      	ldr	r1, [pc, #36]	@ (10000e74 <busy_wait_us+0x5c>)
10000e4e:	6a4a      	ldr	r2, [r1, #36]	@ 0x24
10000e50:	429a      	cmp	r2, r3
10000e52:	d3fc      	bcc.n	10000e4e <busy_wait_us+0x36>
10000e54:	429a      	cmp	r2, r3
10000e56:	d107      	bne.n	10000e68 <busy_wait_us+0x50>
10000e58:	4b06      	ldr	r3, [pc, #24]	@ (10000e74 <busy_wait_us+0x5c>)
10000e5a:	e002      	b.n	10000e62 <busy_wait_us+0x4a>
10000e5c:	6a59      	ldr	r1, [r3, #36]	@ 0x24
10000e5e:	4291      	cmp	r1, r2
10000e60:	d102      	bne.n	10000e68 <busy_wait_us+0x50>
10000e62:	6a99      	ldr	r1, [r3, #40]	@ 0x28
10000e64:	4281      	cmp	r1, r0
10000e66:	d3f9      	bcc.n	10000e5c <busy_wait_us+0x44>
10000e68:	bd00      	pop	{pc}
10000e6a:	4a02      	ldr	r2, [pc, #8]	@ (10000e74 <busy_wait_us+0x5c>)
10000e6c:	6a52      	ldr	r2, [r2, #36]	@ 0x24
10000e6e:	4293      	cmp	r3, r2
10000e70:	d8ec      	bhi.n	10000e4c <busy_wait_us+0x34>
10000e72:	e7ef      	b.n	10000e54 <busy_wait_us+0x3c>
10000e74:	400b0000 	.word	0x400b0000

10000e78 <uart_init>:
10000e78:	b570      	push	{r4, r5, r6, lr}
10000e7a:	4604      	mov	r4, r0
10000e7c:	b082      	sub	sp, #8
10000e7e:	2006      	movs	r0, #6
10000e80:	460e      	mov	r6, r1
10000e82:	f000 f8ef 	bl	10001064 <clock_get_hz>
10000e86:	2800      	cmp	r0, #0
10000e88:	d044      	beq.n	10000f14 <uart_init+0x9c>
10000e8a:	4a38      	ldr	r2, [pc, #224]	@ (10000f6c <uart_init+0xf4>)
10000e8c:	4838      	ldr	r0, [pc, #224]	@ (10000f70 <uart_init+0xf8>)
10000e8e:	4294      	cmp	r4, r2
10000e90:	bf14      	ite	ne
10000e92:	f04f 6280 	movne.w	r2, #67108864	@ 0x4000000
10000e96:	f04f 6200 	moveq.w	r2, #134217728	@ 0x8000000
10000e9a:	4b36      	ldr	r3, [pc, #216]	@ (10000f74 <uart_init+0xfc>)
10000e9c:	4936      	ldr	r1, [pc, #216]	@ (10000f78 <uart_init+0x100>)
10000e9e:	6002      	str	r2, [r0, #0]
10000ea0:	601a      	str	r2, [r3, #0]
10000ea2:	688d      	ldr	r5, [r1, #8]
10000ea4:	ea32 0505 	bics.w	r5, r2, r5
10000ea8:	d1fb      	bne.n	10000ea2 <uart_init+0x2a>
10000eaa:	4a30      	ldr	r2, [pc, #192]	@ (10000f6c <uart_init+0xf4>)
10000eac:	f44f 7080 	mov.w	r0, #256	@ 0x100
10000eb0:	1aa2      	subs	r2, r4, r2
10000eb2:	fab2 f282 	clz	r2, r2
10000eb6:	4931      	ldr	r1, [pc, #196]	@ (10000f7c <uart_init+0x104>)
10000eb8:	0952      	lsrs	r2, r2, #5
10000eba:	f821 0012 	strh.w	r0, [r1, r2, lsl #1]
10000ebe:	2006      	movs	r0, #6
10000ec0:	f000 f8d0 	bl	10001064 <clock_get_hz>
10000ec4:	00c2      	lsls	r2, r0, #3
10000ec6:	fbb2 f2f6 	udiv	r2, r2, r6
10000eca:	3201      	adds	r2, #1
10000ecc:	09d1      	lsrs	r1, r2, #7
10000ece:	d123      	bne.n	10000f18 <uart_init+0xa0>
10000ed0:	2640      	movs	r6, #64	@ 0x40
10000ed2:	2301      	movs	r3, #1
10000ed4:	6263      	str	r3, [r4, #36]	@ 0x24
10000ed6:	62a1      	str	r1, [r4, #40]	@ 0x28
10000ed8:	6b25      	ldr	r5, [r4, #48]	@ 0x30
10000eda:	07eb      	lsls	r3, r5, #31
10000edc:	d425      	bmi.n	10000f2a <uart_init+0xb2>
10000ede:	4623      	mov	r3, r4
10000ee0:	2100      	movs	r1, #0
10000ee2:	f853 2f2c 	ldr.w	r2, [r3, #44]!
10000ee6:	2006      	movs	r0, #6
10000ee8:	f503 5280 	add.w	r2, r3, #4096	@ 0x1000
10000eec:	6011      	str	r1, [r2, #0]
10000eee:	6325      	str	r5, [r4, #48]	@ 0x30
10000ef0:	9201      	str	r2, [sp, #4]
10000ef2:	f000 f8b7 	bl	10001064 <clock_get_hz>
10000ef6:	f240 3501 	movw	r5, #769	@ 0x301
10000efa:	2103      	movs	r1, #3
10000efc:	0080      	lsls	r0, r0, #2
10000efe:	fbb0 f0f6 	udiv	r0, r0, r6
10000f02:	6ae3      	ldr	r3, [r4, #44]	@ 0x2c
10000f04:	9a01      	ldr	r2, [sp, #4]
10000f06:	f083 0370 	eor.w	r3, r3, #112	@ 0x70
10000f0a:	f003 037e 	and.w	r3, r3, #126	@ 0x7e
10000f0e:	6013      	str	r3, [r2, #0]
10000f10:	6325      	str	r5, [r4, #48]	@ 0x30
10000f12:	64a1      	str	r1, [r4, #72]	@ 0x48
10000f14:	b002      	add	sp, #8
10000f16:	bd70      	pop	{r4, r5, r6, pc}
10000f18:	f64f 70fe 	movw	r0, #65534	@ 0xfffe
10000f1c:	4281      	cmp	r1, r0
10000f1e:	d91d      	bls.n	10000f5c <uart_init+0xe4>
10000f20:	4629      	mov	r1, r5
10000f22:	f64f 73ff 	movw	r3, #65535	@ 0xffff
10000f26:	4e16      	ldr	r6, [pc, #88]	@ (10000f80 <uart_init+0x108>)
10000f28:	e7d4      	b.n	10000ed4 <uart_init+0x5c>
10000f2a:	f240 3201 	movw	r2, #769	@ 0x301
10000f2e:	f504 5340 	add.w	r3, r4, #12288	@ 0x3000
10000f32:	631a      	str	r2, [r3, #48]	@ 0x30
10000f34:	6a63      	ldr	r3, [r4, #36]	@ 0x24
10000f36:	6aa2      	ldr	r2, [r4, #40]	@ 0x28
10000f38:	2006      	movs	r0, #6
10000f3a:	eb02 1283 	add.w	r2, r2, r3, lsl #6
10000f3e:	9201      	str	r2, [sp, #4]
10000f40:	f000 f890 	bl	10001064 <clock_get_hz>
10000f44:	4b0f      	ldr	r3, [pc, #60]	@ (10000f84 <uart_init+0x10c>)
10000f46:	9a01      	ldr	r2, [sp, #4]
10000f48:	fba3 1300 	umull	r1, r3, r3, r0
10000f4c:	0290      	lsls	r0, r2, #10
10000f4e:	0adb      	lsrs	r3, r3, #11
10000f50:	fbb0 f0f3 	udiv	r0, r0, r3
10000f54:	2100      	movs	r1, #0
10000f56:	f7ff ff5f 	bl	10000e18 <busy_wait_us>
10000f5a:	e7c0      	b.n	10000ede <uart_init+0x66>
10000f5c:	f3c2 0245 	ubfx	r2, r2, #1, #6
10000f60:	460b      	mov	r3, r1
10000f62:	eb02 1681 	add.w	r6, r2, r1, lsl #6
10000f66:	4611      	mov	r1, r2
10000f68:	e7b4      	b.n	10000ed4 <uart_init+0x5c>
10000f6a:	bf00      	nop
10000f6c:	40078000 	.word	0x40078000
10000f70:	40022000 	.word	0x40022000
10000f74:	40023000 	.word	0x40023000
10000f78:	40020000 	.word	0x40020000
10000f7c:	200004cc 	.word	0x200004cc
10000f80:	003fffc0 	.word	0x003fffc0
10000f84:	8f2b7b75 	.word	0x8f2b7b75

10000f88 <clock_configure_undivided>:
10000f88:	eb00 0c40 	add.w	ip, r0, r0, lsl #1
10000f8c:	ea4f 0c8c 	mov.w	ip, ip, lsl #2
10000f90:	f10c 4c80 	add.w	ip, ip, #1073741824	@ 0x40000000
10000f94:	f50c 3c80 	add.w	ip, ip, #65536	@ 0x10000
10000f98:	b570      	push	{r4, r5, r6, lr}
10000f9a:	461e      	mov	r6, r3
10000f9c:	f8dc 3004 	ldr.w	r3, [ip, #4]
10000fa0:	1f04      	subs	r4, r0, #4
10000fa2:	f5b3 3f80 	cmp.w	r3, #65536	@ 0x10000
10000fa6:	bf38      	it	cc
10000fa8:	f44f 3380 	movcc.w	r3, #65536	@ 0x10000
10000fac:	b2e4      	uxtb	r4, r4
10000fae:	bf38      	it	cc
10000fb0:	f8cc 3004 	strcc.w	r3, [ip, #4]
10000fb4:	2c01      	cmp	r4, #1
10000fb6:	d92e      	bls.n	10001016 <clock_configure_undivided+0x8e>
10000fb8:	f44f 6500 	mov.w	r5, #2048	@ 0x800
10000fbc:	4b28      	ldr	r3, [pc, #160]	@ (10001060 <clock_configure_undivided+0xd8>)
10000fbe:	f50c 5e40 	add.w	lr, ip, #12288	@ 0x3000
10000fc2:	f8ce 5000 	str.w	r5, [lr]
10000fc6:	f853 e020 	ldr.w	lr, [r3, r0, lsl #2]
10000fca:	f1be 0f00 	cmp.w	lr, #0
10000fce:	d117      	bne.n	10001000 <clock_configure_undivided+0x78>
10000fd0:	f8dc e000 	ldr.w	lr, [ip]
10000fd4:	2c01      	cmp	r4, #1
10000fd6:	ea8e 1242 	eor.w	r2, lr, r2, lsl #5
10000fda:	f002 02e0 	and.w	r2, r2, #224	@ 0xe0
10000fde:	f50c 5e80 	add.w	lr, ip, #4096	@ 0x1000
10000fe2:	f8ce 2000 	str.w	r2, [lr]
10000fe6:	d92b      	bls.n	10001040 <clock_configure_undivided+0xb8>
10000fe8:	f44f 6100 	mov.w	r1, #2048	@ 0x800
10000fec:	f843 6020 	str.w	r6, [r3, r0, lsl #2]
10000ff0:	f44f 3380 	mov.w	r3, #65536	@ 0x10000
10000ff4:	f50c 5200 	add.w	r2, ip, #8192	@ 0x2000
10000ff8:	6011      	str	r1, [r2, #0]
10000ffa:	f8cc 3004 	str.w	r3, [ip, #4]
10000ffe:	bd70      	pop	{r4, r5, r6, pc}
10001000:	695d      	ldr	r5, [r3, #20]
10001002:	fbb5 fefe 	udiv	lr, r5, lr
10001006:	f10e 0e01 	add.w	lr, lr, #1
1000100a:	eb0e 0e4e 	add.w	lr, lr, lr, lsl #1
1000100e:	f1be 0e03 	subs.w	lr, lr, #3
10001012:	d2fc      	bcs.n	1000100e <clock_configure_undivided+0x86>
10001014:	e7dc      	b.n	10000fd0 <clock_configure_undivided+0x48>
10001016:	2901      	cmp	r1, #1
10001018:	d1ce      	bne.n	10000fb8 <clock_configure_undivided+0x30>
1000101a:	2403      	movs	r4, #3
1000101c:	f50c 5340 	add.w	r3, ip, #12288	@ 0x3000
10001020:	601c      	str	r4, [r3, #0]
10001022:	f8dc 3008 	ldr.w	r3, [ip, #8]
10001026:	07db      	lsls	r3, r3, #31
10001028:	d5fb      	bpl.n	10001022 <clock_configure_undivided+0x9a>
1000102a:	f8dc 3000 	ldr.w	r3, [ip]
1000102e:	f50c 5e80 	add.w	lr, ip, #4096	@ 0x1000
10001032:	ea83 1342 	eor.w	r3, r3, r2, lsl #5
10001036:	f003 03e0 	and.w	r3, r3, #224	@ 0xe0
1000103a:	f8ce 3000 	str.w	r3, [lr]
1000103e:	4b08      	ldr	r3, [pc, #32]	@ (10001060 <clock_configure_undivided+0xd8>)
10001040:	2201      	movs	r2, #1
10001042:	f8dc 4000 	ldr.w	r4, [ip]
10001046:	404c      	eors	r4, r1
10001048:	f004 0403 	and.w	r4, r4, #3
1000104c:	f8ce 4000 	str.w	r4, [lr]
10001050:	fa02 f101 	lsl.w	r1, r2, r1
10001054:	f8dc 2008 	ldr.w	r2, [ip, #8]
10001058:	420a      	tst	r2, r1
1000105a:	d0fb      	beq.n	10001054 <clock_configure_undivided+0xcc>
1000105c:	e7c4      	b.n	10000fe8 <clock_configure_undivided+0x60>
1000105e:	bf00      	nop
10001060:	2000045c 	.word	0x2000045c

10001064 <clock_get_hz>:
10001064:	4b01      	ldr	r3, [pc, #4]	@ (1000106c <clock_get_hz+0x8>)
10001066:	f853 0020 	ldr.w	r0, [r3, r0, lsl #2]
1000106a:	4770      	bx	lr
1000106c:	2000045c 	.word	0x2000045c

10001070 <pll_init>:
10001070:	b510      	push	{r4, lr}
10001072:	9c02      	ldr	r4, [sp, #8]
10001074:	468e      	mov	lr, r1
10001076:	ea4f 3c04 	mov.w	ip, r4, lsl #12
1000107a:	ea4c 4c03 	orr.w	ip, ip, r3, lsl #16
1000107e:	4b1c      	ldr	r3, [pc, #112]	@ (100010f0 <pll_init+0x80>)
10001080:	fbb3 f3f1 	udiv	r3, r3, r1
10001084:	6801      	ldr	r1, [r0, #0]
10001086:	fbb2 f4f3 	udiv	r4, r2, r3
1000108a:	2900      	cmp	r1, #0
1000108c:	db20      	blt.n	100010d0 <pll_init+0x60>
1000108e:	4a19      	ldr	r2, [pc, #100]	@ (100010f4 <pll_init+0x84>)
10001090:	4b19      	ldr	r3, [pc, #100]	@ (100010f8 <pll_init+0x88>)
10001092:	4290      	cmp	r0, r2
10001094:	bf14      	ite	ne
10001096:	f44f 4280 	movne.w	r2, #16384	@ 0x4000
1000109a:	f44f 4200 	moveq.w	r2, #32768	@ 0x8000
1000109e:	4917      	ldr	r1, [pc, #92]	@ (100010fc <pll_init+0x8c>)
100010a0:	601a      	str	r2, [r3, #0]
100010a2:	f503 5380 	add.w	r3, r3, #4096	@ 0x1000
100010a6:	601a      	str	r2, [r3, #0]
100010a8:	688b      	ldr	r3, [r1, #8]
100010aa:	ea32 0303 	bics.w	r3, r2, r3
100010ae:	d1fb      	bne.n	100010a8 <pll_init+0x38>
100010b0:	2221      	movs	r2, #33	@ 0x21
100010b2:	f500 5340 	add.w	r3, r0, #12288	@ 0x3000
100010b6:	3304      	adds	r3, #4
100010b8:	f8c0 e000 	str.w	lr, [r0]
100010bc:	6084      	str	r4, [r0, #8]
100010be:	601a      	str	r2, [r3, #0]
100010c0:	6802      	ldr	r2, [r0, #0]
100010c2:	2a00      	cmp	r2, #0
100010c4:	dafc      	bge.n	100010c0 <pll_init+0x50>
100010c6:	2208      	movs	r2, #8
100010c8:	f8c0 c00c 	str.w	ip, [r0, #12]
100010cc:	601a      	str	r2, [r3, #0]
100010ce:	bd10      	pop	{r4, pc}
100010d0:	6803      	ldr	r3, [r0, #0]
100010d2:	f003 033f 	and.w	r3, r3, #63	@ 0x3f
100010d6:	4573      	cmp	r3, lr
100010d8:	d1d9      	bne.n	1000108e <pll_init+0x1e>
100010da:	6883      	ldr	r3, [r0, #8]
100010dc:	f3c3 030b 	ubfx	r3, r3, #0, #12
100010e0:	42a3      	cmp	r3, r4
100010e2:	d1d4      	bne.n	1000108e <pll_init+0x1e>
100010e4:	68c3      	ldr	r3, [r0, #12]
100010e6:	f403 23ee 	and.w	r3, r3, #487424	@ 0x77000
100010ea:	4563      	cmp	r3, ip
100010ec:	d1cf      	bne.n	1000108e <pll_init+0x1e>
100010ee:	bd10      	pop	{r4, pc}
100010f0:	00b71b00 	.word	0x00b71b00
100010f4:	40058000 	.word	0x40058000
100010f8:	40022000 	.word	0x40022000
100010fc:	40020000 	.word	0x40020000

10001100 <tick_start>:
10001100:	2301      	movs	r3, #1
10001102:	eb00 0040 	add.w	r0, r0, r0, lsl #1
10001106:	0080      	lsls	r0, r0, #2
10001108:	f100 4080 	add.w	r0, r0, #1073741824	@ 0x40000000
1000110c:	f500 1084 	add.w	r0, r0, #1081344	@ 0x108000
10001110:	6041      	str	r1, [r0, #4]
10001112:	6003      	str	r3, [r0, #0]
10001114:	4770      	bx	lr
10001116:	bf00      	nop

10001118 <rom_func_lookup>:
10001118:	2300      	movs	r3, #0
1000111a:	8adb      	ldrh	r3, [r3, #22]
1000111c:	2200      	movs	r2, #0
1000111e:	e842 f200 	tt	r2, r2
10001122:	0252      	lsls	r2, r2, #9
10001124:	d401      	bmi.n	1000112a <rom_func_lookup+0x12>
10001126:	2110      	movs	r1, #16
10001128:	4718      	bx	r3
1000112a:	2104      	movs	r1, #4
1000112c:	4718      	bx	r3
1000112e:	bf00      	nop

10001130 <runtime_init_bootrom_locking_enable>:
10001130:	4a03      	ldr	r2, [pc, #12]	@ (10001140 <runtime_init_bootrom_locking_enable+0x10>)
10001132:	f8d2 3828 	ldr.w	r3, [r2, #2088]	@ 0x828
10001136:	2b00      	cmp	r3, #0
10001138:	d0fb      	beq.n	10001132 <runtime_init_bootrom_locking_enable+0x2>
1000113a:	f3bf 8f5f 	dmb	sy
1000113e:	4770      	bx	lr
10001140:	400e0000 	.word	0x400e0000

10001144 <runtime_init_boot_locks_reset>:
10001144:	2100      	movs	r1, #0
10001146:	4b04      	ldr	r3, [pc, #16]	@ (10001158 <runtime_init_boot_locks_reset+0x14>)
10001148:	4a04      	ldr	r2, [pc, #16]	@ (1000115c <runtime_init_boot_locks_reset+0x18>)
1000114a:	f3bf 8f5f 	dmb	sy
1000114e:	f843 1b04 	str.w	r1, [r3], #4
10001152:	4293      	cmp	r3, r2
10001154:	d1f9      	bne.n	1000114a <runtime_init_boot_locks_reset+0x6>
10001156:	4770      	bx	lr
10001158:	400e080c 	.word	0x400e080c
1000115c:	400e082c 	.word	0x400e082c

10001160 <xosc_init>:
10001160:	f44f 6c2a 	mov.w	ip, #2720	@ 0xaa0
10001164:	f44f 708d 	mov.w	r0, #282	@ 0x11a
10001168:	4a05      	ldr	r2, [pc, #20]	@ (10001180 <xosc_init+0x20>)
1000116a:	4b06      	ldr	r3, [pc, #24]	@ (10001184 <xosc_init+0x24>)
1000116c:	4906      	ldr	r1, [pc, #24]	@ (10001188 <xosc_init+0x28>)
1000116e:	f8c2 c000 	str.w	ip, [r2]
10001172:	60d0      	str	r0, [r2, #12]
10001174:	6019      	str	r1, [r3, #0]
10001176:	6853      	ldr	r3, [r2, #4]
10001178:	2b00      	cmp	r3, #0
1000117a:	dafc      	bge.n	10001176 <xosc_init+0x16>
1000117c:	4770      	bx	lr
1000117e:	bf00      	nop
10001180:	40048000 	.word	0x40048000
10001184:	4004a000 	.word	0x4004a000
10001188:	00fab000 	.word	0x00fab000

1000118c <first_per_core_initializer>:
1000118c:	4770      	bx	lr
1000118e:	bf00      	nop

10001190 <hard_assertion_failure>:
10001190:	b508      	push	{r3, lr}
10001192:	4801      	ldr	r0, [pc, #4]	@ (10001198 <hard_assertion_failure+0x8>)
10001194:	f7ff f878 	bl	10000288 <panic>
10001198:	10001aac 	.word	0x10001aac

1000119c <runtime_run_initializers>:
1000119c:	b538      	push	{r3, r4, r5, lr}
1000119e:	4c05      	ldr	r4, [pc, #20]	@ (100011b4 <runtime_run_initializers+0x18>)
100011a0:	4d05      	ldr	r5, [pc, #20]	@ (100011b8 <runtime_run_initializers+0x1c>)
100011a2:	42ac      	cmp	r4, r5
100011a4:	d204      	bcs.n	100011b0 <runtime_run_initializers+0x14>
100011a6:	f854 3b04 	ldr.w	r3, [r4], #4
100011aa:	4798      	blx	r3
100011ac:	42ac      	cmp	r4, r5
100011ae:	d3fa      	bcc.n	100011a6 <runtime_run_initializers+0xa>
100011b0:	bd38      	pop	{r3, r4, r5, pc}
100011b2:	bf00      	nop
100011b4:	10001a20 	.word	0x10001a20
100011b8:	10001a60 	.word	0x10001a60

100011bc <runtime_init_early_resets>:
100011bc:	4806      	ldr	r0, [pc, #24]	@ (100011d8 <runtime_init_early_resets+0x1c>)
100011be:	f8df c028 	ldr.w	ip, [pc, #40]	@ 100011e8 <runtime_init_early_resets+0x2c>
100011c2:	4b06      	ldr	r3, [pc, #24]	@ (100011dc <runtime_init_early_resets+0x20>)
100011c4:	4a06      	ldr	r2, [pc, #24]	@ (100011e0 <runtime_init_early_resets+0x24>)
100011c6:	4907      	ldr	r1, [pc, #28]	@ (100011e4 <runtime_init_early_resets+0x28>)
100011c8:	f8c0 c000 	str.w	ip, [r0]
100011cc:	601a      	str	r2, [r3, #0]
100011ce:	688b      	ldr	r3, [r1, #8]
100011d0:	ea32 0303 	bics.w	r3, r2, r3
100011d4:	d1fb      	bne.n	100011ce <runtime_init_early_resets+0x12>
100011d6:	4770      	bx	lr
100011d8:	40022000 	.word	0x40022000
100011dc:	40023000 	.word	0x40023000
100011e0:	03f3fff6 	.word	0x03f3fff6
100011e4:	40020000 	.word	0x40020000
100011e8:	efef3b7f 	.word	0xefef3b7f

100011ec <runtime_init_usb_power_down>:
100011ec:	4b04      	ldr	r3, [pc, #16]	@ (10001200 <runtime_init_usb_power_down+0x14>)
100011ee:	6cdb      	ldr	r3, [r3, #76]	@ 0x4c
100011f0:	f5b3 4f00 	cmp.w	r3, #32768	@ 0x8000
100011f4:	d103      	bne.n	100011fe <runtime_init_usb_power_down+0x12>
100011f6:	f44f 2280 	mov.w	r2, #262144	@ 0x40000
100011fa:	4b02      	ldr	r3, [pc, #8]	@ (10001204 <runtime_init_usb_power_down+0x18>)
100011fc:	64da      	str	r2, [r3, #76]	@ 0x4c
100011fe:	4770      	bx	lr
10001200:	50110000 	.word	0x50110000
10001204:	50112000 	.word	0x50112000

10001208 <runtime_init_per_core_enable_coprocessors>:
10001208:	f04f 22e0 	mov.w	r2, #3758153728	@ 0xe000e000
1000120c:	4b04      	ldr	r3, [pc, #16]	@ (10001220 <runtime_init_per_core_enable_coprocessors+0x18>)
1000120e:	f8d2 1d88 	ldr.w	r1, [r2, #3464]	@ 0xd88
10001212:	430b      	orrs	r3, r1
10001214:	f8c2 3d88 	str.w	r3, [r2, #3464]	@ 0xd88
10001218:	ee10 0430 			dcp_rcmp r0
1000121c:	4770      	bx	lr
1000121e:	bf00      	nop
10001220:	00300303 	.word	0x00300303

10001224 <runtime_init_post_clock_resets>:
10001224:	f06f 4160 	mvn.w	r1, #3758096384	@ 0xe0000000
10001228:	4b04      	ldr	r3, [pc, #16]	@ (1000123c <runtime_init_post_clock_resets+0x18>)
1000122a:	4a05      	ldr	r2, [pc, #20]	@ (10001240 <runtime_init_post_clock_resets+0x1c>)
1000122c:	6019      	str	r1, [r3, #0]
1000122e:	6893      	ldr	r3, [r2, #8]
10001230:	43db      	mvns	r3, r3
10001232:	f033 4360 	bics.w	r3, r3, #3758096384	@ 0xe0000000
10001236:	d1fa      	bne.n	1000122e <runtime_init_post_clock_resets+0xa>
10001238:	4770      	bx	lr
1000123a:	bf00      	nop
1000123c:	40023000 	.word	0x40023000
10001240:	40020000 	.word	0x40020000

10001244 <runtime_init_bootrom_reset>:
10001244:	b510      	push	{r4, lr}
10001246:	f245 2053 	movw	r0, #21075	@ 0x5253
1000124a:	f7ff ff65 	bl	10001118 <rom_func_lookup>
1000124e:	e8bd 4010 	ldmia.w	sp!, {r4, lr}
10001252:	4603      	mov	r3, r0
10001254:	2004      	movs	r0, #4
10001256:	4718      	bx	r3

10001258 <runtime_init_per_core_bootrom_reset>:
10001258:	b510      	push	{r4, lr}
1000125a:	f245 2053 	movw	r0, #21075	@ 0x5253
1000125e:	f7ff ff5b 	bl	10001118 <rom_func_lookup>
10001262:	e8bd 4010 	ldmia.w	sp!, {r4, lr}
10001266:	4603      	mov	r3, r0
10001268:	2001      	movs	r0, #1
1000126a:	4718      	bx	r3

1000126c <runtime_init_spin_locks_reset>:
1000126c:	f7ff b864 	b.w	10000338 <spin_locks_reset>

10001270 <runtime_init_install_ram_vector_table>:
10001270:	4914      	ldr	r1, [pc, #80]	@ (100012c4 <runtime_init_install_ram_vector_table+0x54>)
10001272:	4b15      	ldr	r3, [pc, #84]	@ (100012c8 <runtime_init_install_ram_vector_table+0x58>)
10001274:	b570      	push	{r4, r5, r6, lr}
10001276:	1a5c      	subs	r4, r3, r1
10001278:	10a6      	asrs	r6, r4, #2
1000127a:	2e44      	cmp	r6, #68	@ 0x44
1000127c:	4632      	mov	r2, r6
1000127e:	bf28      	it	cs
10001280:	2244      	movcs	r2, #68	@ 0x44
10001282:	4d12      	ldr	r5, [pc, #72]	@ (100012cc <runtime_init_install_ram_vector_table+0x5c>)
10001284:	0092      	lsls	r2, r2, #2
10001286:	4628      	mov	r0, r5
10001288:	f000 fb1c 	bl	100018c4 <memcpy>
1000128c:	f5b4 7f86 	cmp.w	r4, #268	@ 0x10c
10001290:	d813      	bhi.n	100012ba <runtime_init_install_ram_vector_table+0x4a>
10001292:	4a0f      	ldr	r2, [pc, #60]	@ (100012d0 <runtime_init_install_ram_vector_table+0x60>)
10001294:	d014      	beq.n	100012c0 <runtime_init_install_ram_vector_table+0x50>
10001296:	f1c6 0044 	rsb	r0, r6, #68	@ 0x44
1000129a:	192b      	adds	r3, r5, r4
1000129c:	0841      	lsrs	r1, r0, #1
1000129e:	eb03 01c1 	add.w	r1, r3, r1, lsl #3
100012a2:	e9c3 2200 	strd	r2, r2, [r3]
100012a6:	3308      	adds	r3, #8
100012a8:	4299      	cmp	r1, r3
100012aa:	d1fa      	bne.n	100012a2 <runtime_init_install_ram_vector_table+0x32>
100012ac:	07c3      	lsls	r3, r0, #31
100012ae:	d504      	bpl.n	100012ba <runtime_init_install_ram_vector_table+0x4a>
100012b0:	f020 0001 	bic.w	r0, r0, #1
100012b4:	4430      	add	r0, r6
100012b6:	f845 2020 	str.w	r2, [r5, r0, lsl #2]
100012ba:	4b06      	ldr	r3, [pc, #24]	@ (100012d4 <runtime_init_install_ram_vector_table+0x64>)
100012bc:	609d      	str	r5, [r3, #8]
100012be:	bd70      	pop	{r4, r5, r6, pc}
100012c0:	2043      	movs	r0, #67	@ 0x43
100012c2:	e7f8      	b.n	100012b6 <runtime_init_install_ram_vector_table+0x46>
100012c4:	10000000 	.word	0x10000000
100012c8:	10000110 	.word	0x10000110
100012cc:	20000000 	.word	0x20000000
100012d0:	10000111 	.word	0x10000111
100012d4:	e000ed00 	.word	0xe000ed00

100012d8 <runtime_init_clocks>:
100012d8:	2300      	movs	r3, #0
100012da:	b570      	push	{r4, r5, r6, lr}
100012dc:	4c2b      	ldr	r4, [pc, #172]	@ (1000138c <runtime_init_clocks+0xb4>)
100012de:	b082      	sub	sp, #8
100012e0:	f8c4 3084 	str.w	r3, [r4, #132]	@ 0x84
100012e4:	f7ff ff3c 	bl	10001160 <xosc_init>
100012e8:	2201      	movs	r2, #1
100012ea:	4b29      	ldr	r3, [pc, #164]	@ (10001390 <runtime_init_clocks+0xb8>)
100012ec:	63da      	str	r2, [r3, #60]	@ 0x3c
100012ee:	6c63      	ldr	r3, [r4, #68]	@ 0x44
100012f0:	2b01      	cmp	r3, #1
100012f2:	d1fc      	bne.n	100012ee <runtime_init_clocks+0x16>
100012f4:	2103      	movs	r1, #3
100012f6:	4a26      	ldr	r2, [pc, #152]	@ (10001390 <runtime_init_clocks+0xb8>)
100012f8:	4b24      	ldr	r3, [pc, #144]	@ (1000138c <runtime_init_clocks+0xb4>)
100012fa:	6311      	str	r1, [r2, #48]	@ 0x30
100012fc:	6b9c      	ldr	r4, [r3, #56]	@ 0x38
100012fe:	2c01      	cmp	r4, #1
10001300:	d1fc      	bne.n	100012fc <runtime_init_clocks+0x24>
10001302:	2602      	movs	r6, #2
10001304:	2505      	movs	r5, #5
10001306:	4621      	mov	r1, r4
10001308:	2305      	movs	r3, #5
1000130a:	4a22      	ldr	r2, [pc, #136]	@ (10001394 <runtime_init_clocks+0xbc>)
1000130c:	4822      	ldr	r0, [pc, #136]	@ (10001398 <runtime_init_clocks+0xc0>)
1000130e:	9600      	str	r6, [sp, #0]
10001310:	f7ff feae 	bl	10001070 <pll_init>
10001314:	4621      	mov	r1, r4
10001316:	462b      	mov	r3, r5
10001318:	4a20      	ldr	r2, [pc, #128]	@ (1000139c <runtime_init_clocks+0xc4>)
1000131a:	4821      	ldr	r0, [pc, #132]	@ (100013a0 <runtime_init_clocks+0xc8>)
1000131c:	9500      	str	r5, [sp, #0]
1000131e:	f7ff fea7 	bl	10001070 <pll_init>
10001322:	2200      	movs	r2, #0
10001324:	2004      	movs	r0, #4
10001326:	4631      	mov	r1, r6
10001328:	4b1e      	ldr	r3, [pc, #120]	@ (100013a4 <runtime_init_clocks+0xcc>)
1000132a:	f7ff fe2d 	bl	10000f88 <clock_configure_undivided>
1000132e:	4621      	mov	r1, r4
10001330:	4628      	mov	r0, r5
10001332:	2200      	movs	r2, #0
10001334:	4b1c      	ldr	r3, [pc, #112]	@ (100013a8 <runtime_init_clocks+0xd0>)
10001336:	f7ff fe27 	bl	10000f88 <clock_configure_undivided>
1000133a:	2200      	movs	r2, #0
1000133c:	2008      	movs	r0, #8
1000133e:	4611      	mov	r1, r2
10001340:	4b1a      	ldr	r3, [pc, #104]	@ (100013ac <runtime_init_clocks+0xd4>)
10001342:	f7ff fe21 	bl	10000f88 <clock_configure_undivided>
10001346:	2200      	movs	r2, #0
10001348:	2009      	movs	r0, #9
1000134a:	4611      	mov	r1, r2
1000134c:	4b17      	ldr	r3, [pc, #92]	@ (100013ac <runtime_init_clocks+0xd4>)
1000134e:	f7ff fe1b 	bl	10000f88 <clock_configure_undivided>
10001352:	2200      	movs	r2, #0
10001354:	2006      	movs	r0, #6
10001356:	4611      	mov	r1, r2
10001358:	4b13      	ldr	r3, [pc, #76]	@ (100013a8 <runtime_init_clocks+0xd0>)
1000135a:	f7ff fe15 	bl	10000f88 <clock_configure_undivided>
1000135e:	2200      	movs	r2, #0
10001360:	4b11      	ldr	r3, [pc, #68]	@ (100013a8 <runtime_init_clocks+0xd0>)
10001362:	2007      	movs	r0, #7
10001364:	4611      	mov	r1, r2
10001366:	f7ff fe0f 	bl	10000f88 <clock_configure_undivided>
1000136a:	2004      	movs	r0, #4
1000136c:	f7ff fe7a 	bl	10001064 <clock_get_hz>
10001370:	2400      	movs	r4, #0
10001372:	4b0f      	ldr	r3, [pc, #60]	@ (100013b0 <runtime_init_clocks+0xd8>)
10001374:	fba3 3500 	umull	r3, r5, r3, r0
10001378:	0cad      	lsrs	r5, r5, #18
1000137a:	b2e0      	uxtb	r0, r4
1000137c:	4629      	mov	r1, r5
1000137e:	3401      	adds	r4, #1
10001380:	f7ff febe 	bl	10001100 <tick_start>
10001384:	2c06      	cmp	r4, #6
10001386:	d1f8      	bne.n	1000137a <runtime_init_clocks+0xa2>
10001388:	b002      	add	sp, #8
1000138a:	bd70      	pop	{r4, r5, r6, pc}
1000138c:	40010000 	.word	0x40010000
10001390:	40013000 	.word	0x40013000
10001394:	59682f00 	.word	0x59682f00
10001398:	40050000 	.word	0x40050000
1000139c:	47868c00 	.word	0x47868c00
100013a0:	40058000 	.word	0x40058000
100013a4:	00b71b00 	.word	0x00b71b00
100013a8:	08f0d180 	.word	0x08f0d180
100013ac:	02dc6c00 	.word	0x02dc6c00
100013b0:	431bde83 	.word	0x431bde83

100013b4 <_out_char>:
100013b4:	b900      	cbnz	r0, 100013b8 <_out_char+0x4>
100013b6:	4770      	bx	lr
100013b8:	f000 b91e 	b.w	100015f8 <__wrap_putchar>

100013bc <weak_raw_vprintf>:
100013bc:	b510      	push	{r4, lr}
100013be:	4a09      	ldr	r2, [pc, #36]	@ (100013e4 <weak_raw_vprintf+0x28>)
100013c0:	b084      	sub	sp, #16
100013c2:	6814      	ldr	r4, [r2, #0]
100013c4:	b14c      	cbz	r4, 100013da <weak_raw_vprintf+0x1e>
100013c6:	4603      	mov	r3, r0
100013c8:	9100      	str	r1, [sp, #0]
100013ca:	f04f 32ff 	mov.w	r2, #4294967295	@ 0xffffffff
100013ce:	a903      	add	r1, sp, #12
100013d0:	4805      	ldr	r0, [pc, #20]	@ (100013e8 <weak_raw_vprintf+0x2c>)
100013d2:	47a0      	blx	r4
100013d4:	2001      	movs	r0, #1
100013d6:	b004      	add	sp, #16
100013d8:	bd10      	pop	{r4, pc}
100013da:	f000 f94f 	bl	1000167c <__wrap_puts>
100013de:	4620      	mov	r0, r4
100013e0:	b004      	add	sp, #16
100013e2:	bd10      	pop	{r4, pc}
100013e4:	2000048c 	.word	0x2000048c
100013e8:	100013b5 	.word	0x100013b5

100013ec <_exit>:
100013ec:	be00      	bkpt	0x0000
100013ee:	e7fd      	b.n	100013ec <_exit>

100013f0 <exit>:
100013f0:	b508      	push	{r3, lr}
100013f2:	f7ff fffb 	bl	100013ec <_exit>
100013f6:	bf00      	nop

100013f8 <runtime_init>:
100013f8:	b538      	push	{r3, r4, r5, lr}
100013fa:	4c06      	ldr	r4, [pc, #24]	@ (10001414 <runtime_init+0x1c>)
100013fc:	4d06      	ldr	r5, [pc, #24]	@ (10001418 <runtime_init+0x20>)
100013fe:	f7ff fecd 	bl	1000119c <runtime_run_initializers>
10001402:	42ac      	cmp	r4, r5
10001404:	d204      	bcs.n	10001410 <runtime_init+0x18>
10001406:	f854 3b04 	ldr.w	r3, [r4], #4
1000140a:	4798      	blx	r3
1000140c:	42ac      	cmp	r4, r5
1000140e:	d3fa      	bcc.n	10001406 <runtime_init+0xe>
10001410:	bd38      	pop	{r3, r4, r5, pc}
10001412:	bf00      	nop
10001414:	10001a60 	.word	0x10001a60
10001418:	10001a64 	.word	0x10001a64

1000141c <stdio_out_chars_no_crlf>:
1000141c:	6803      	ldr	r3, [r0, #0]
1000141e:	4608      	mov	r0, r1
10001420:	4611      	mov	r1, r2
10001422:	4718      	bx	r3

10001424 <stdio_out_chars_crlf>:
10001424:	b570      	push	{r4, r5, r6, lr}
10001426:	4605      	mov	r5, r0
10001428:	4608      	mov	r0, r1
1000142a:	7d69      	ldrb	r1, [r5, #21]
1000142c:	b082      	sub	sp, #8
1000142e:	2900      	cmp	r1, #0
10001430:	d04f      	beq.n	100014d2 <stdio_out_chars_crlf+0xae>
10001432:	2a00      	cmp	r2, #0
10001434:	dd25      	ble.n	10001482 <stdio_out_chars_crlf+0x5e>
10001436:	7803      	ldrb	r3, [r0, #0]
10001438:	4614      	mov	r4, r2
1000143a:	2b0a      	cmp	r3, #10
1000143c:	4606      	mov	r6, r0
1000143e:	d022      	beq.n	10001486 <stdio_out_chars_crlf+0x62>
10001440:	2c01      	cmp	r4, #1
10001442:	f04f 0e00 	mov.w	lr, #0
10001446:	d00d      	beq.n	10001464 <stdio_out_chars_crlf+0x40>
10001448:	4632      	mov	r2, r6
1000144a:	2301      	movs	r3, #1
1000144c:	f812 cf01 	ldrb.w	ip, [r2, #1]!
10001450:	4619      	mov	r1, r3
10001452:	f1bc 0f0a 	cmp.w	ip, #10
10001456:	f103 0301 	add.w	r3, r3, #1
1000145a:	d020      	beq.n	1000149e <stdio_out_chars_crlf+0x7a>
1000145c:	429c      	cmp	r4, r3
1000145e:	d1f5      	bne.n	1000144c <stdio_out_chars_crlf+0x28>
10001460:	4574      	cmp	r4, lr
10001462:	dd05      	ble.n	10001470 <stdio_out_chars_crlf+0x4c>
10001464:	682b      	ldr	r3, [r5, #0]
10001466:	eba4 010e 	sub.w	r1, r4, lr
1000146a:	eb06 000e 	add.w	r0, r6, lr
1000146e:	4798      	blx	r3
10001470:	1931      	adds	r1, r6, r4
10001472:	f811 3c01 	ldrb.w	r3, [r1, #-1]
10001476:	f1a3 030d 	sub.w	r3, r3, #13
1000147a:	fab3 f383 	clz	r3, r3
1000147e:	095b      	lsrs	r3, r3, #5
10001480:	752b      	strb	r3, [r5, #20]
10001482:	b002      	add	sp, #8
10001484:	bd70      	pop	{r4, r5, r6, pc}
10001486:	7d2b      	ldrb	r3, [r5, #20]
10001488:	2b00      	cmp	r3, #0
1000148a:	d1d9      	bne.n	10001440 <stdio_out_chars_crlf+0x1c>
1000148c:	2102      	movs	r1, #2
1000148e:	682b      	ldr	r3, [r5, #0]
10001490:	4813      	ldr	r0, [pc, #76]	@ (100014e0 <stdio_out_chars_crlf+0xbc>)
10001492:	4798      	blx	r3
10001494:	2c01      	cmp	r4, #1
10001496:	d0eb      	beq.n	10001470 <stdio_out_chars_crlf+0x4c>
10001498:	f04f 0e01 	mov.w	lr, #1
1000149c:	e7d4      	b.n	10001448 <stdio_out_chars_crlf+0x24>
1000149e:	f812 0c01 	ldrb.w	r0, [r2, #-1]
100014a2:	280d      	cmp	r0, #13
100014a4:	d0da      	beq.n	1000145c <stdio_out_chars_crlf+0x38>
100014a6:	458e      	cmp	lr, r1
100014a8:	eb06 000e 	add.w	r0, r6, lr
100014ac:	eba1 010e 	sub.w	r1, r1, lr
100014b0:	da05      	bge.n	100014be <stdio_out_chars_crlf+0x9a>
100014b2:	e9cd 3200 	strd	r3, r2, [sp]
100014b6:	682b      	ldr	r3, [r5, #0]
100014b8:	4798      	blx	r3
100014ba:	e9dd 3200 	ldrd	r3, r2, [sp]
100014be:	e9cd 3200 	strd	r3, r2, [sp]
100014c2:	2102      	movs	r1, #2
100014c4:	682b      	ldr	r3, [r5, #0]
100014c6:	4806      	ldr	r0, [pc, #24]	@ (100014e0 <stdio_out_chars_crlf+0xbc>)
100014c8:	4798      	blx	r3
100014ca:	9b00      	ldr	r3, [sp, #0]
100014cc:	9a01      	ldr	r2, [sp, #4]
100014ce:	469e      	mov	lr, r3
100014d0:	e7c4      	b.n	1000145c <stdio_out_chars_crlf+0x38>
100014d2:	4611      	mov	r1, r2
100014d4:	682b      	ldr	r3, [r5, #0]
100014d6:	b002      	add	sp, #8
100014d8:	e8bd 4070 	ldmia.w	sp!, {r4, r5, r6, lr}
100014dc:	4718      	bx	r3
100014de:	bf00      	nop
100014e0:	10001b78 	.word	0x10001b78

100014e4 <stdio_put_string>:
100014e4:	e92d 47f0 	stmdb	sp!, {r4, r5, r6, r7, r8, r9, sl, lr}
100014e8:	b082      	sub	sp, #8
100014ea:	4690      	mov	r8, r2
100014ec:	461c      	mov	r4, r3
100014ee:	460d      	mov	r5, r1
100014f0:	4607      	mov	r7, r0
100014f2:	f7ff fc87 	bl	10000e04 <time_us_64>
100014f6:	f04f 3cff 	mov.w	ip, #4294967295	@ 0xffffffff
100014fa:	f06f 4600 	mvn.w	r6, #2147483648	@ 0x80000000
100014fe:	4a2e      	ldr	r2, [pc, #184]	@ (100015b8 <stdio_put_string+0xd4>)
10001500:	1882      	adds	r2, r0, r2
10001502:	f141 0300 	adc.w	r3, r1, #0
10001506:	4594      	cmp	ip, r2
10001508:	eb76 0103 	sbcs.w	r1, r6, r3
1000150c:	bf3c      	itt	cc
1000150e:	4662      	movcc	r2, ip
10001510:	4633      	movcc	r3, r6
10001512:	482a      	ldr	r0, [pc, #168]	@ (100015bc <stdio_put_string+0xd8>)
10001514:	f000 fa80 	bl	10001a18 <__mutex_try_enter_block_until_veneer>
10001518:	1c6b      	adds	r3, r5, #1
1000151a:	4682      	mov	sl, r0
1000151c:	d040      	beq.n	100015a0 <stdio_put_string+0xbc>
1000151e:	b30c      	cbz	r4, 10001564 <stdio_put_string+0x80>
10001520:	4e27      	ldr	r6, [pc, #156]	@ (100015c0 <stdio_put_string+0xdc>)
10001522:	4b28      	ldr	r3, [pc, #160]	@ (100015c4 <stdio_put_string+0xe0>)
10001524:	681c      	ldr	r4, [r3, #0]
10001526:	b1b4      	cbz	r4, 10001556 <stdio_put_string+0x72>
10001528:	f1b8 0f00 	cmp.w	r8, #0
1000152c:	d11c      	bne.n	10001568 <stdio_put_string+0x84>
1000152e:	f8df 809c 	ldr.w	r8, [pc, #156]	@ 100015cc <stdio_put_string+0xe8>
10001532:	e001      	b.n	10001538 <stdio_put_string+0x54>
10001534:	6924      	ldr	r4, [r4, #16]
10001536:	b174      	cbz	r4, 10001556 <stdio_put_string+0x72>
10001538:	6823      	ldr	r3, [r4, #0]
1000153a:	2b00      	cmp	r3, #0
1000153c:	d0fa      	beq.n	10001534 <stdio_put_string+0x50>
1000153e:	f8d8 3000 	ldr.w	r3, [r8]
10001542:	b10b      	cbz	r3, 10001548 <stdio_put_string+0x64>
10001544:	429c      	cmp	r4, r3
10001546:	d1f5      	bne.n	10001534 <stdio_put_string+0x50>
10001548:	4620      	mov	r0, r4
1000154a:	462a      	mov	r2, r5
1000154c:	4639      	mov	r1, r7
1000154e:	47b0      	blx	r6
10001550:	6924      	ldr	r4, [r4, #16]
10001552:	2c00      	cmp	r4, #0
10001554:	d1f0      	bne.n	10001538 <stdio_put_string+0x54>
10001556:	f1ba 0f00 	cmp.w	sl, #0
1000155a:	d126      	bne.n	100015aa <stdio_put_string+0xc6>
1000155c:	4628      	mov	r0, r5
1000155e:	b002      	add	sp, #8
10001560:	e8bd 87f0 	ldmia.w	sp!, {r4, r5, r6, r7, r8, r9, sl, pc}
10001564:	4e18      	ldr	r6, [pc, #96]	@ (100015c8 <stdio_put_string+0xe4>)
10001566:	e7dc      	b.n	10001522 <stdio_put_string+0x3e>
10001568:	f04f 090a 	mov.w	r9, #10
1000156c:	f8df 805c 	ldr.w	r8, [pc, #92]	@ 100015cc <stdio_put_string+0xe8>
10001570:	e002      	b.n	10001578 <stdio_put_string+0x94>
10001572:	6924      	ldr	r4, [r4, #16]
10001574:	2c00      	cmp	r4, #0
10001576:	d0ee      	beq.n	10001556 <stdio_put_string+0x72>
10001578:	6823      	ldr	r3, [r4, #0]
1000157a:	2b00      	cmp	r3, #0
1000157c:	d0f9      	beq.n	10001572 <stdio_put_string+0x8e>
1000157e:	f8d8 3000 	ldr.w	r3, [r8]
10001582:	b10b      	cbz	r3, 10001588 <stdio_put_string+0xa4>
10001584:	42a3      	cmp	r3, r4
10001586:	d1f4      	bne.n	10001572 <stdio_put_string+0x8e>
10001588:	462a      	mov	r2, r5
1000158a:	4639      	mov	r1, r7
1000158c:	4620      	mov	r0, r4
1000158e:	47b0      	blx	r6
10001590:	2201      	movs	r2, #1
10001592:	4620      	mov	r0, r4
10001594:	f10d 0107 	add.w	r1, sp, #7
10001598:	f88d 9007 	strb.w	r9, [sp, #7]
1000159c:	47b0      	blx	r6
1000159e:	e7e8      	b.n	10001572 <stdio_put_string+0x8e>
100015a0:	4638      	mov	r0, r7
100015a2:	f000 fa05 	bl	100019b0 <strlen>
100015a6:	4605      	mov	r5, r0
100015a8:	e7b9      	b.n	1000151e <stdio_put_string+0x3a>
100015aa:	4804      	ldr	r0, [pc, #16]	@ (100015bc <stdio_put_string+0xd8>)
100015ac:	f000 fa30 	bl	10001a10 <__mutex_exit_veneer>
100015b0:	4628      	mov	r0, r5
100015b2:	b002      	add	sp, #8
100015b4:	e8bd 87f0 	ldmia.w	sp!, {r4, r5, r6, r7, r8, r9, sl, pc}
100015b8:	000f4240 	.word	0x000f4240
100015bc:	200002a4 	.word	0x200002a4
100015c0:	10001425 	.word	0x10001425
100015c4:	20000484 	.word	0x20000484
100015c8:	1000141d 	.word	0x1000141d
100015cc:	20000488 	.word	0x20000488

100015d0 <stdio_set_driver_enabled>:
100015d0:	4a08      	ldr	r2, [pc, #32]	@ (100015f4 <stdio_set_driver_enabled+0x24>)
100015d2:	6813      	ldr	r3, [r2, #0]
100015d4:	b923      	cbnz	r3, 100015e0 <stdio_set_driver_enabled+0x10>
100015d6:	e00a      	b.n	100015ee <stdio_set_driver_enabled+0x1e>
100015d8:	f103 0210 	add.w	r2, r3, #16
100015dc:	691b      	ldr	r3, [r3, #16]
100015de:	b133      	cbz	r3, 100015ee <stdio_set_driver_enabled+0x1e>
100015e0:	4283      	cmp	r3, r0
100015e2:	d1f9      	bne.n	100015d8 <stdio_set_driver_enabled+0x8>
100015e4:	b929      	cbnz	r1, 100015f2 <stdio_set_driver_enabled+0x22>
100015e6:	6918      	ldr	r0, [r3, #16]
100015e8:	6010      	str	r0, [r2, #0]
100015ea:	6119      	str	r1, [r3, #16]
100015ec:	4770      	bx	lr
100015ee:	b101      	cbz	r1, 100015f2 <stdio_set_driver_enabled+0x22>
100015f0:	6010      	str	r0, [r2, #0]
100015f2:	4770      	bx	lr
100015f4:	20000484 	.word	0x20000484

100015f8 <__wrap_putchar>:
100015f8:	b5f0      	push	{r4, r5, r6, r7, lr}
100015fa:	b083      	sub	sp, #12
100015fc:	4606      	mov	r6, r0
100015fe:	f88d 0007 	strb.w	r0, [sp, #7]
10001602:	f7ff fbff 	bl	10000e04 <time_us_64>
10001606:	f04f 35ff 	mov.w	r5, #4294967295	@ 0xffffffff
1000160a:	f06f 4400 	mvn.w	r4, #2147483648	@ 0x80000000
1000160e:	4a17      	ldr	r2, [pc, #92]	@ (1000166c <__wrap_putchar+0x74>)
10001610:	1882      	adds	r2, r0, r2
10001612:	f141 0300 	adc.w	r3, r1, #0
10001616:	4295      	cmp	r5, r2
10001618:	eb74 0103 	sbcs.w	r1, r4, r3
1000161c:	bf3c      	itt	cc
1000161e:	4623      	movcc	r3, r4
10001620:	462a      	movcc	r2, r5
10001622:	4813      	ldr	r0, [pc, #76]	@ (10001670 <__wrap_putchar+0x78>)
10001624:	f000 f9f8 	bl	10001a18 <__mutex_try_enter_block_until_veneer>
10001628:	4b12      	ldr	r3, [pc, #72]	@ (10001674 <__wrap_putchar+0x7c>)
1000162a:	4607      	mov	r7, r0
1000162c:	681c      	ldr	r4, [r3, #0]
1000162e:	b19c      	cbz	r4, 10001658 <__wrap_putchar+0x60>
10001630:	4d11      	ldr	r5, [pc, #68]	@ (10001678 <__wrap_putchar+0x80>)
10001632:	e001      	b.n	10001638 <__wrap_putchar+0x40>
10001634:	6924      	ldr	r4, [r4, #16]
10001636:	b17c      	cbz	r4, 10001658 <__wrap_putchar+0x60>
10001638:	6823      	ldr	r3, [r4, #0]
1000163a:	2b00      	cmp	r3, #0
1000163c:	d0fa      	beq.n	10001634 <__wrap_putchar+0x3c>
1000163e:	682b      	ldr	r3, [r5, #0]
10001640:	b10b      	cbz	r3, 10001646 <__wrap_putchar+0x4e>
10001642:	429c      	cmp	r4, r3
10001644:	d1f6      	bne.n	10001634 <__wrap_putchar+0x3c>
10001646:	4620      	mov	r0, r4
10001648:	2201      	movs	r2, #1
1000164a:	f10d 0107 	add.w	r1, sp, #7
1000164e:	f7ff fee9 	bl	10001424 <stdio_out_chars_crlf>
10001652:	6924      	ldr	r4, [r4, #16]
10001654:	2c00      	cmp	r4, #0
10001656:	d1ef      	bne.n	10001638 <__wrap_putchar+0x40>
10001658:	b917      	cbnz	r7, 10001660 <__wrap_putchar+0x68>
1000165a:	4630      	mov	r0, r6
1000165c:	b003      	add	sp, #12
1000165e:	bdf0      	pop	{r4, r5, r6, r7, pc}
10001660:	4803      	ldr	r0, [pc, #12]	@ (10001670 <__wrap_putchar+0x78>)
10001662:	f000 f9d5 	bl	10001a10 <__mutex_exit_veneer>
10001666:	4630      	mov	r0, r6
10001668:	b003      	add	sp, #12
1000166a:	bdf0      	pop	{r4, r5, r6, r7, pc}
1000166c:	000f4240 	.word	0x000f4240
10001670:	200002a4 	.word	0x200002a4
10001674:	20000484 	.word	0x20000484
10001678:	20000488 	.word	0x20000488

1000167c <__wrap_puts>:
1000167c:	b538      	push	{r3, r4, r5, lr}
1000167e:	4604      	mov	r4, r0
10001680:	f000 f996 	bl	100019b0 <strlen>
10001684:	2301      	movs	r3, #1
10001686:	4605      	mov	r5, r0
10001688:	461a      	mov	r2, r3
1000168a:	4620      	mov	r0, r4
1000168c:	4629      	mov	r1, r5
1000168e:	f7ff ff29 	bl	100014e4 <stdio_put_string>
10001692:	4b08      	ldr	r3, [pc, #32]	@ (100016b4 <__wrap_puts+0x38>)
10001694:	681c      	ldr	r4, [r3, #0]
10001696:	b12c      	cbz	r4, 100016a4 <__wrap_puts+0x28>
10001698:	6863      	ldr	r3, [r4, #4]
1000169a:	b12b      	cbz	r3, 100016a8 <__wrap_puts+0x2c>
1000169c:	4798      	blx	r3
1000169e:	6924      	ldr	r4, [r4, #16]
100016a0:	2c00      	cmp	r4, #0
100016a2:	d1f9      	bne.n	10001698 <__wrap_puts+0x1c>
100016a4:	4628      	mov	r0, r5
100016a6:	bd38      	pop	{r3, r4, r5, pc}
100016a8:	6924      	ldr	r4, [r4, #16]
100016aa:	2c00      	cmp	r4, #0
100016ac:	d1f4      	bne.n	10001698 <__wrap_puts+0x1c>
100016ae:	4628      	mov	r0, r5
100016b0:	bd38      	pop	{r3, r4, r5, pc}
100016b2:	bf00      	nop
100016b4:	20000484 	.word	0x20000484

100016b8 <stdio_uart_out_chars>:
100016b8:	f1b1 0c00 	subs.w	ip, r1, #0
100016bc:	dd1e      	ble.n	100016fc <stdio_uart_out_chars+0x44>
100016be:	4a10      	ldr	r2, [pc, #64]	@ (10001700 <stdio_uart_out_chars+0x48>)
100016c0:	4b10      	ldr	r3, [pc, #64]	@ (10001704 <stdio_uart_out_chars+0x4c>)
100016c2:	6812      	ldr	r2, [r2, #0]
100016c4:	b510      	push	{r4, lr}
100016c6:	1ad3      	subs	r3, r2, r3
100016c8:	fab3 f383 	clz	r3, r3
100016cc:	240d      	movs	r4, #13
100016ce:	f8df e038 	ldr.w	lr, [pc, #56]	@ 10001708 <stdio_uart_out_chars+0x50>
100016d2:	095b      	lsrs	r3, r3, #5
100016d4:	1e41      	subs	r1, r0, #1
100016d6:	f93e e013 	ldrsh.w	lr, [lr, r3, lsl #1]
100016da:	448c      	add	ip, r1
100016dc:	f811 0f01 	ldrb.w	r0, [r1, #1]!
100016e0:	4586      	cmp	lr, r0
100016e2:	d006      	beq.n	100016f2 <stdio_uart_out_chars+0x3a>
100016e4:	6993      	ldr	r3, [r2, #24]
100016e6:	069b      	lsls	r3, r3, #26
100016e8:	d4fc      	bmi.n	100016e4 <stdio_uart_out_chars+0x2c>
100016ea:	4561      	cmp	r1, ip
100016ec:	6010      	str	r0, [r2, #0]
100016ee:	d1f5      	bne.n	100016dc <stdio_uart_out_chars+0x24>
100016f0:	bd10      	pop	{r4, pc}
100016f2:	6993      	ldr	r3, [r2, #24]
100016f4:	069b      	lsls	r3, r3, #26
100016f6:	d4fc      	bmi.n	100016f2 <stdio_uart_out_chars+0x3a>
100016f8:	6014      	str	r4, [r2, #0]
100016fa:	e7f3      	b.n	100016e4 <stdio_uart_out_chars+0x2c>
100016fc:	4770      	bx	lr
100016fe:	bf00      	nop
10001700:	200004d0 	.word	0x200004d0
10001704:	40078000 	.word	0x40078000
10001708:	200004cc 	.word	0x200004cc

1000170c <stdio_uart_in_chars>:
1000170c:	4b24      	ldr	r3, [pc, #144]	@ (100017a0 <stdio_uart_in_chars+0x94>)
1000170e:	f1b1 0c00 	subs.w	ip, r1, #0
10001712:	b500      	push	{lr}
10001714:	f8d3 e000 	ldr.w	lr, [r3]
10001718:	dd2f      	ble.n	1000177a <stdio_uart_in_chars+0x6e>
1000171a:	2100      	movs	r1, #0
1000171c:	4b21      	ldr	r3, [pc, #132]	@ (100017a4 <stdio_uart_in_chars+0x98>)
1000171e:	3801      	subs	r0, #1
10001720:	681a      	ldr	r2, [r3, #0]
10001722:	6993      	ldr	r3, [r2, #24]
10001724:	06db      	lsls	r3, r3, #27
10001726:	d418      	bmi.n	1000175a <stdio_uart_in_chars+0x4e>
10001728:	3101      	adds	r1, #1
1000172a:	6993      	ldr	r3, [r2, #24]
1000172c:	06db      	lsls	r3, r3, #27
1000172e:	d4fc      	bmi.n	1000172a <stdio_uart_in_chars+0x1e>
10001730:	6813      	ldr	r3, [r2, #0]
10001732:	458c      	cmp	ip, r1
10001734:	f800 3f01 	strb.w	r3, [r0, #1]!
10001738:	d1f3      	bne.n	10001722 <stdio_uart_in_chars+0x16>
1000173a:	f1be 0f00 	cmp.w	lr, #0
1000173e:	d009      	beq.n	10001754 <stdio_uart_in_chars+0x48>
10001740:	2150      	movs	r1, #80	@ 0x50
10001742:	4613      	mov	r3, r2
10001744:	6391      	str	r1, [r2, #56]	@ 0x38
10001746:	f853 2f34 	ldr.w	r2, [r3, #52]!
1000174a:	f002 0238 	and.w	r2, r2, #56	@ 0x38
1000174e:	f503 5380 	add.w	r3, r3, #4096	@ 0x1000
10001752:	601a      	str	r2, [r3, #0]
10001754:	4661      	mov	r1, ip
10001756:	4608      	mov	r0, r1
10001758:	bd00      	pop	{pc}
1000175a:	f1be 0f00 	cmp.w	lr, #0
1000175e:	d009      	beq.n	10001774 <stdio_uart_in_chars+0x68>
10001760:	2050      	movs	r0, #80	@ 0x50
10001762:	4613      	mov	r3, r2
10001764:	6390      	str	r0, [r2, #56]	@ 0x38
10001766:	f853 2f34 	ldr.w	r2, [r3, #52]!
1000176a:	f002 0238 	and.w	r2, r2, #56	@ 0x38
1000176e:	f503 5380 	add.w	r3, r3, #4096	@ 0x1000
10001772:	601a      	str	r2, [r3, #0]
10001774:	b181      	cbz	r1, 10001798 <stdio_uart_in_chars+0x8c>
10001776:	4608      	mov	r0, r1
10001778:	bd00      	pop	{pc}
1000177a:	f1be 0f00 	cmp.w	lr, #0
1000177e:	d00b      	beq.n	10001798 <stdio_uart_in_chars+0x8c>
10001780:	4b08      	ldr	r3, [pc, #32]	@ (100017a4 <stdio_uart_in_chars+0x98>)
10001782:	2150      	movs	r1, #80	@ 0x50
10001784:	681a      	ldr	r2, [r3, #0]
10001786:	4613      	mov	r3, r2
10001788:	6391      	str	r1, [r2, #56]	@ 0x38
1000178a:	f853 2f34 	ldr.w	r2, [r3, #52]!
1000178e:	f002 0238 	and.w	r2, r2, #56	@ 0x38
10001792:	f503 5380 	add.w	r3, r3, #4096	@ 0x1000
10001796:	601a      	str	r2, [r3, #0]
10001798:	f06f 0102 	mvn.w	r1, #2
1000179c:	e7db      	b.n	10001756 <stdio_uart_in_chars+0x4a>
1000179e:	bf00      	nop
100017a0:	20000450 	.word	0x20000450
100017a4:	200004d0 	.word	0x200004d0

100017a8 <on_uart_rx>:
100017a8:	4b05      	ldr	r3, [pc, #20]	@ (100017c0 <on_uart_rx+0x18>)
100017aa:	681b      	ldr	r3, [r3, #0]
100017ac:	b133      	cbz	r3, 100017bc <on_uart_rx+0x14>
100017ae:	2100      	movs	r1, #0
100017b0:	4a04      	ldr	r2, [pc, #16]	@ (100017c4 <on_uart_rx+0x1c>)
100017b2:	4805      	ldr	r0, [pc, #20]	@ (100017c8 <on_uart_rx+0x20>)
100017b4:	6812      	ldr	r2, [r2, #0]
100017b6:	6800      	ldr	r0, [r0, #0]
100017b8:	6391      	str	r1, [r2, #56]	@ 0x38
100017ba:	4718      	bx	r3
100017bc:	4770      	bx	lr
100017be:	bf00      	nop
100017c0:	20000450 	.word	0x20000450
100017c4:	200004d0 	.word	0x200004d0
100017c8:	20000454 	.word	0x20000454

100017cc <stdio_uart_out_flush>:
100017cc:	4b02      	ldr	r3, [pc, #8]	@ (100017d8 <stdio_uart_out_flush+0xc>)
100017ce:	681a      	ldr	r2, [r3, #0]
100017d0:	6993      	ldr	r3, [r2, #24]
100017d2:	071b      	lsls	r3, r3, #28
100017d4:	d4fc      	bmi.n	100017d0 <stdio_uart_out_flush+0x4>
100017d6:	4770      	bx	lr
100017d8:	200004d0 	.word	0x200004d0

100017dc <stdio_uart_set_chars_available_callback>:
100017dc:	b530      	push	{r4, r5, lr}
100017de:	4d1f      	ldr	r5, [pc, #124]	@ (1000185c <stdio_uart_set_chars_available_callback+0x80>)
100017e0:	4a1f      	ldr	r2, [pc, #124]	@ (10001860 <stdio_uart_set_chars_available_callback+0x84>)
100017e2:	f8d5 c000 	ldr.w	ip, [r5]
100017e6:	4c1f      	ldr	r4, [pc, #124]	@ (10001864 <stdio_uart_set_chars_available_callback+0x88>)
100017e8:	468e      	mov	lr, r1
100017ea:	4594      	cmp	ip, r2
100017ec:	bf14      	ite	ne
100017ee:	2221      	movne	r2, #33	@ 0x21
100017f0:	2222      	moveq	r2, #34	@ 0x22
100017f2:	6821      	ldr	r1, [r4, #0]
100017f4:	b083      	sub	sp, #12
100017f6:	b110      	cbz	r0, 100017fe <stdio_uart_set_chars_available_callback+0x22>
100017f8:	b1a9      	cbz	r1, 10001826 <stdio_uart_set_chars_available_callback+0x4a>
100017fa:	b003      	add	sp, #12
100017fc:	bd30      	pop	{r4, r5, pc}
100017fe:	2900      	cmp	r1, #0
10001800:	d0fb      	beq.n	100017fa <stdio_uart_set_chars_available_callback+0x1e>
10001802:	f8cc 0038 	str.w	r0, [ip, #56]	@ 0x38
10001806:	4601      	mov	r1, r0
10001808:	9001      	str	r0, [sp, #4]
1000180a:	4610      	mov	r0, r2
1000180c:	9200      	str	r2, [sp, #0]
1000180e:	f7fe fdbf 	bl	10000390 <irq_set_enabled>
10001812:	4915      	ldr	r1, [pc, #84]	@ (10001868 <stdio_uart_set_chars_available_callback+0x8c>)
10001814:	9800      	ldr	r0, [sp, #0]
10001816:	f7fe fe09 	bl	1000042c <irq_remove_handler>
1000181a:	9b01      	ldr	r3, [sp, #4]
1000181c:	4a13      	ldr	r2, [pc, #76]	@ (1000186c <stdio_uart_set_chars_available_callback+0x90>)
1000181e:	6023      	str	r3, [r4, #0]
10001820:	6013      	str	r3, [r2, #0]
10001822:	b003      	add	sp, #12
10001824:	bd30      	pop	{r4, r5, pc}
10001826:	4b11      	ldr	r3, [pc, #68]	@ (1000186c <stdio_uart_set_chars_available_callback+0x90>)
10001828:	6020      	str	r0, [r4, #0]
1000182a:	490f      	ldr	r1, [pc, #60]	@ (10001868 <stdio_uart_set_chars_available_callback+0x8c>)
1000182c:	4610      	mov	r0, r2
1000182e:	9200      	str	r2, [sp, #0]
10001830:	f8c3 e000 	str.w	lr, [r3]
10001834:	f7fe fdc2 	bl	100003bc <irq_set_exclusive_handler>
10001838:	2101      	movs	r1, #1
1000183a:	9800      	ldr	r0, [sp, #0]
1000183c:	f7fe fda8 	bl	10000390 <irq_set_enabled>
10001840:	682a      	ldr	r2, [r5, #0]
10001842:	2150      	movs	r1, #80	@ 0x50
10001844:	4613      	mov	r3, r2
10001846:	6391      	str	r1, [r2, #56]	@ 0x38
10001848:	f853 2f34 	ldr.w	r2, [r3, #52]!
1000184c:	f002 0238 	and.w	r2, r2, #56	@ 0x38
10001850:	f503 5380 	add.w	r3, r3, #4096	@ 0x1000
10001854:	601a      	str	r2, [r3, #0]
10001856:	b003      	add	sp, #12
10001858:	bd30      	pop	{r4, r5, pc}
1000185a:	bf00      	nop
1000185c:	200004d0 	.word	0x200004d0
10001860:	40078000 	.word	0x40078000
10001864:	20000450 	.word	0x20000450
10001868:	100017a9 	.word	0x100017a9
1000186c:	20000454 	.word	0x20000454

10001870 <stdio_uart_init>:
10001870:	b510      	push	{r4, lr}
10001872:	490e      	ldr	r1, [pc, #56]	@ (100018ac <stdio_uart_init+0x3c>)
10001874:	4c0e      	ldr	r4, [pc, #56]	@ (100018b0 <stdio_uart_init+0x40>)
10001876:	480f      	ldr	r0, [pc, #60]	@ (100018b4 <stdio_uart_init+0x44>)
10001878:	4a0f      	ldr	r2, [pc, #60]	@ (100018b8 <stdio_uart_init+0x48>)
1000187a:	4b10      	ldr	r3, [pc, #64]	@ (100018bc <stdio_uart_init+0x4c>)
1000187c:	7800      	ldrb	r0, [r0, #0]
1000187e:	6021      	str	r1, [r4, #0]
10001880:	2000      	movs	r0, #0
10001882:	2102      	movs	r1, #2
10001884:	7812      	ldrb	r2, [r2, #0]
10001886:	781b      	ldrb	r3, [r3, #0]
10001888:	f7fe fce0 	bl	1000024c <gpio_set_function>
1000188c:	2102      	movs	r1, #2
1000188e:	2001      	movs	r0, #1
10001890:	f7fe fcdc 	bl	1000024c <gpio_set_function>
10001894:	f44f 31e1 	mov.w	r1, #115200	@ 0x1c200
10001898:	6820      	ldr	r0, [r4, #0]
1000189a:	f7ff faed 	bl	10000e78 <uart_init>
1000189e:	e8bd 4010 	ldmia.w	sp!, {r4, lr}
100018a2:	2101      	movs	r1, #1
100018a4:	4806      	ldr	r0, [pc, #24]	@ (100018c0 <stdio_uart_init+0x50>)
100018a6:	f7ff be93 	b.w	100015d0 <stdio_set_driver_enabled>
100018aa:	bf00      	nop
100018ac:	40070000 	.word	0x40070000
100018b0:	200004d0 	.word	0x200004d0
100018b4:	10001bc4 	.word	0x10001bc4
100018b8:	10001bc0 	.word	0x10001bc0
100018bc:	10001bbc 	.word	0x10001bbc
100018c0:	2000028c 	.word	0x2000028c

100018c4 <memcpy>:
100018c4:	4684      	mov	ip, r0
100018c6:	ea41 0300 	orr.w	r3, r1, r0
100018ca:	f013 0303 	ands.w	r3, r3, #3
100018ce:	d149      	bne.n	10001964 <memcpy+0xa0>
100018d0:	3a40      	subs	r2, #64	@ 0x40
100018d2:	d323      	bcc.n	1000191c <memcpy+0x58>
100018d4:	680b      	ldr	r3, [r1, #0]
100018d6:	6003      	str	r3, [r0, #0]
100018d8:	684b      	ldr	r3, [r1, #4]
100018da:	6043      	str	r3, [r0, #4]
100018dc:	688b      	ldr	r3, [r1, #8]
100018de:	6083      	str	r3, [r0, #8]
100018e0:	68cb      	ldr	r3, [r1, #12]
100018e2:	60c3      	str	r3, [r0, #12]
100018e4:	690b      	ldr	r3, [r1, #16]
100018e6:	6103      	str	r3, [r0, #16]
100018e8:	694b      	ldr	r3, [r1, #20]
100018ea:	6143      	str	r3, [r0, #20]
100018ec:	698b      	ldr	r3, [r1, #24]
100018ee:	6183      	str	r3, [r0, #24]
100018f0:	69cb      	ldr	r3, [r1, #28]
100018f2:	61c3      	str	r3, [r0, #28]
100018f4:	6a0b      	ldr	r3, [r1, #32]
100018f6:	6203      	str	r3, [r0, #32]
100018f8:	6a4b      	ldr	r3, [r1, #36]	@ 0x24
100018fa:	6243      	str	r3, [r0, #36]	@ 0x24
100018fc:	6a8b      	ldr	r3, [r1, #40]	@ 0x28
100018fe:	6283      	str	r3, [r0, #40]	@ 0x28
10001900:	6acb      	ldr	r3, [r1, #44]	@ 0x2c
10001902:	62c3      	str	r3, [r0, #44]	@ 0x2c
10001904:	6b0b      	ldr	r3, [r1, #48]	@ 0x30
10001906:	6303      	str	r3, [r0, #48]	@ 0x30
10001908:	6b4b      	ldr	r3, [r1, #52]	@ 0x34
1000190a:	6343      	str	r3, [r0, #52]	@ 0x34
1000190c:	6b8b      	ldr	r3, [r1, #56]	@ 0x38
1000190e:	6383      	str	r3, [r0, #56]	@ 0x38
10001910:	6bcb      	ldr	r3, [r1, #60]	@ 0x3c
10001912:	63c3      	str	r3, [r0, #60]	@ 0x3c
10001914:	3040      	adds	r0, #64	@ 0x40
10001916:	3140      	adds	r1, #64	@ 0x40
10001918:	3a40      	subs	r2, #64	@ 0x40
1000191a:	d2db      	bcs.n	100018d4 <memcpy+0x10>
1000191c:	3230      	adds	r2, #48	@ 0x30
1000191e:	d30b      	bcc.n	10001938 <memcpy+0x74>
10001920:	680b      	ldr	r3, [r1, #0]
10001922:	6003      	str	r3, [r0, #0]
10001924:	684b      	ldr	r3, [r1, #4]
10001926:	6043      	str	r3, [r0, #4]
10001928:	688b      	ldr	r3, [r1, #8]
1000192a:	6083      	str	r3, [r0, #8]
1000192c:	68cb      	ldr	r3, [r1, #12]
1000192e:	60c3      	str	r3, [r0, #12]
10001930:	3010      	adds	r0, #16
10001932:	3110      	adds	r1, #16
10001934:	3a10      	subs	r2, #16
10001936:	d2f3      	bcs.n	10001920 <memcpy+0x5c>
10001938:	320c      	adds	r2, #12
1000193a:	d305      	bcc.n	10001948 <memcpy+0x84>
1000193c:	f851 3b04 	ldr.w	r3, [r1], #4
10001940:	f840 3b04 	str.w	r3, [r0], #4
10001944:	3a04      	subs	r2, #4
10001946:	d2f9      	bcs.n	1000193c <memcpy+0x78>
10001948:	3204      	adds	r2, #4
1000194a:	d008      	beq.n	1000195e <memcpy+0x9a>
1000194c:	07d2      	lsls	r2, r2, #31
1000194e:	bf1c      	itt	ne
10001950:	f811 3b01 	ldrbne.w	r3, [r1], #1
10001954:	f800 3b01 	strbne.w	r3, [r0], #1
10001958:	d301      	bcc.n	1000195e <memcpy+0x9a>
1000195a:	880b      	ldrh	r3, [r1, #0]
1000195c:	8003      	strh	r3, [r0, #0]
1000195e:	4660      	mov	r0, ip
10001960:	4770      	bx	lr
10001962:	bf00      	nop
10001964:	2a08      	cmp	r2, #8
10001966:	d313      	bcc.n	10001990 <memcpy+0xcc>
10001968:	078b      	lsls	r3, r1, #30
1000196a:	d0b1      	beq.n	100018d0 <memcpy+0xc>
1000196c:	f010 0303 	ands.w	r3, r0, #3
10001970:	d0ae      	beq.n	100018d0 <memcpy+0xc>
10001972:	f1c3 0304 	rsb	r3, r3, #4
10001976:	1ad2      	subs	r2, r2, r3
10001978:	07db      	lsls	r3, r3, #31
1000197a:	bf1c      	itt	ne
1000197c:	f811 3b01 	ldrbne.w	r3, [r1], #1
10001980:	f800 3b01 	strbne.w	r3, [r0], #1
10001984:	d3a4      	bcc.n	100018d0 <memcpy+0xc>
10001986:	f831 3b02 	ldrh.w	r3, [r1], #2
1000198a:	f820 3b02 	strh.w	r3, [r0], #2
1000198e:	e79f      	b.n	100018d0 <memcpy+0xc>
10001990:	3a04      	subs	r2, #4
10001992:	d3d9      	bcc.n	10001948 <memcpy+0x84>
10001994:	3a01      	subs	r2, #1
10001996:	f811 3b01 	ldrb.w	r3, [r1], #1
1000199a:	f800 3b01 	strb.w	r3, [r0], #1
1000199e:	d2f9      	bcs.n	10001994 <memcpy+0xd0>
100019a0:	780b      	ldrb	r3, [r1, #0]
100019a2:	7003      	strb	r3, [r0, #0]
100019a4:	784b      	ldrb	r3, [r1, #1]
100019a6:	7043      	strb	r3, [r0, #1]
100019a8:	788b      	ldrb	r3, [r1, #2]
100019aa:	7083      	strb	r3, [r0, #2]
100019ac:	4660      	mov	r0, ip
100019ae:	4770      	bx	lr

100019b0 <strlen>:
100019b0:	f020 0103 	bic.w	r1, r0, #3
100019b4:	f010 0003 	ands.w	r0, r0, #3
100019b8:	f1c0 0000 	rsb	r0, r0, #0
100019bc:	f851 3b04 	ldr.w	r3, [r1], #4
100019c0:	f100 0c04 	add.w	ip, r0, #4
100019c4:	ea4f 0ccc 	mov.w	ip, ip, lsl #3
100019c8:	f06f 0200 	mvn.w	r2, #0
100019cc:	bf1c      	itt	ne
100019ce:	fa22 f20c 	lsrne.w	r2, r2, ip
100019d2:	4313      	orrne	r3, r2
100019d4:	f04f 0c01 	mov.w	ip, #1
100019d8:	ea4c 2c0c 	orr.w	ip, ip, ip, lsl #8
100019dc:	ea4c 4c0c 	orr.w	ip, ip, ip, lsl #16
100019e0:	eba3 020c 	sub.w	r2, r3, ip
100019e4:	ea22 0203 	bic.w	r2, r2, r3
100019e8:	ea12 12cc 	ands.w	r2, r2, ip, lsl #7
100019ec:	bf04      	itt	eq
100019ee:	f851 3b04 	ldreq.w	r3, [r1], #4
100019f2:	3004      	addeq	r0, #4
100019f4:	d0f4      	beq.n	100019e0 <strlen+0x30>
100019f6:	f1c2 0100 	rsb	r1, r2, #0
100019fa:	ea02 0201 	and.w	r2, r2, r1
100019fe:	fab2 f282 	clz	r2, r2
10001a02:	f1c2 021f 	rsb	r2, r2, #31
10001a06:	eb00 00d2 	add.w	r0, r0, r2, lsr #3
10001a0a:	4770      	bx	lr

10001a0c <_fini>:
10001a0c:	b5f8      	push	{r3, r4, r5, r6, r7, lr}
10001a0e:	bf00      	nop

10001a10 <__mutex_exit_veneer>:
10001a10:	f85f f000 	ldr.w	pc, [pc]	@ 10001a14 <__mutex_exit_veneer+0x4>
10001a14:	200001e5 	.word	0x200001e5

10001a18 <__mutex_try_enter_block_until_veneer>:
10001a18:	f85f f000 	ldr.w	pc, [pc]	@ 10001a1c <__mutex_try_enter_block_until_veneer+0x4>
10001a1c:	2000017d 	.word	0x2000017d

10001a20 <__pre_init_runtime_init_bootrom_reset>:
10001a20:	10001245                                E...

10001a24 <__pre_init_runtime_init_early_resets>:
10001a24:	100011bd                                ....

10001a28 <__pre_init_runtime_init_usb_power_down>:
10001a28:	100011ed                                ....

10001a2c <__pre_init_runtime_init_clocks>:
10001a2c:	100012d9                                ....

10001a30 <__pre_init_runtime_init_post_clock_resets>:
10001a30:	10001225                                %...

10001a34 <__pre_init_runtime_init_boot_locks_reset>:
10001a34:	10001145                                E...

10001a38 <__pre_init_runtime_init_spin_locks_reset>:
10001a38:	1000126d                                m...

10001a3c <__pre_init_runtime_init_bootrom_locking_enable>:
10001a3c:	10001131                                1...

10001a40 <__pre_init_runtime_init_mutex>:
10001a40:	1000070d                                ....

10001a44 <__pre_init_runtime_init_install_ram_vector_table>:
10001a44:	10001271                                q...

10001a48 <__pre_init_runtime_init_default_alarm_pool>:
10001a48:	10000a85                                ....

10001a4c <__pre_init_first_per_core_initializer>:
10001a4c:	1000118d                                ....

10001a50 <__pre_init_runtime_init_per_core_bootrom_reset>:
10001a50:	10001259                                Y...

10001a54 <__pre_init_runtime_init_per_core_enable_coprocessors>:
10001a54:	10001209                                ....

10001a58 <__pre_init_spinlock_set_extexclall>:
10001a58:	10000329                                )...

10001a5c <__pre_init_runtime_init_per_core_irq_priorities>:
10001a5c:	10000351                                Q...

10001a60 <__frame_dummy_init_array_entry>:
10001a60:	10000211                                ....

Disassembly of section .data:

20000110 <mutex_enter_block_until>:
20000110:	f04f 4150 	mov.w	r1, #3489660928	@ 0xd0000000
20000114:	e92d 41f0 	stmdb	sp!, {r4, r5, r6, r7, r8, lr}
20000118:	461f      	mov	r7, r3
2000011a:	680b      	ldr	r3, [r1, #0]
2000011c:	4604      	mov	r4, r0
2000011e:	4616      	mov	r6, r2
20000120:	2500      	movs	r5, #0
20000122:	4698      	mov	r8, r3
20000124:	e008      	b.n	20000138 <mutex_enter_block_until+0x28>
20000126:	e8c3 5f8f 	stlb	r5, [r3]
2000012a:	f382 8810 	msr	PRIMASK, r2
2000012e:	4630      	mov	r0, r6
20000130:	4639      	mov	r1, r7
20000132:	f000 f875 	bl	20000220 <__best_effort_wfe_or_timeout_veneer>
20000136:	b9e8      	cbnz	r0, 20000174 <mutex_enter_block_until+0x64>
20000138:	6823      	ldr	r3, [r4, #0]
2000013a:	f3ef 8210 	mrs	r2, PRIMASK
2000013e:	b672      	cpsid	i
20000140:	e8d3 0fcf 	ldaexb	r0, [r3]
20000144:	2101      	movs	r1, #1
20000146:	2800      	cmp	r0, #0
20000148:	d1fa      	bne.n	20000140 <mutex_enter_block_until+0x30>
2000014a:	e8c3 1f40 	strexb	r0, r1, [r3]
2000014e:	2800      	cmp	r0, #0
20000150:	d1f6      	bne.n	20000140 <mutex_enter_block_until+0x30>
20000152:	f3bf 8f5f 	dmb	sy
20000156:	f994 1004 	ldrsb.w	r1, [r4, #4]
2000015a:	6823      	ldr	r3, [r4, #0]
2000015c:	2900      	cmp	r1, #0
2000015e:	dae2      	bge.n	20000126 <mutex_enter_block_until+0x16>
20000160:	2100      	movs	r1, #0
20000162:	f884 8004 	strb.w	r8, [r4, #4]
20000166:	e8c3 1f8f 	stlb	r1, [r3]
2000016a:	f382 8810 	msr	PRIMASK, r2
2000016e:	2001      	movs	r0, #1
20000170:	e8bd 81f0 	ldmia.w	sp!, {r4, r5, r6, r7, r8, pc}
20000174:	2000      	movs	r0, #0
20000176:	e8bd 81f0 	ldmia.w	sp!, {r4, r5, r6, r7, r8, pc}
2000017a:	bf00      	nop

2000017c <mutex_try_enter_block_until>:
2000017c:	b510      	push	{r4, lr}
2000017e:	6801      	ldr	r1, [r0, #0]
20000180:	f3ef 8e10 	mrs	lr, PRIMASK
20000184:	b672      	cpsid	i
20000186:	e8d1 cfcf 	ldaexb	ip, [r1]
2000018a:	2401      	movs	r4, #1
2000018c:	f1bc 0f00 	cmp.w	ip, #0
20000190:	d1f9      	bne.n	20000186 <mutex_try_enter_block_until+0xa>
20000192:	e8c1 4f4c 	strexb	ip, r4, [r1]
20000196:	f1bc 0f00 	cmp.w	ip, #0
2000019a:	d1f4      	bne.n	20000186 <mutex_try_enter_block_until+0xa>
2000019c:	f3bf 8f5f 	dmb	sy
200001a0:	f990 c004 	ldrsb.w	ip, [r0, #4]
200001a4:	6804      	ldr	r4, [r0, #0]
200001a6:	f1bc 0f00 	cmp.w	ip, #0
200001aa:	db10      	blt.n	200001ce <mutex_try_enter_block_until+0x52>
200001ac:	2100      	movs	r1, #0
200001ae:	e8c4 1f8f 	stlb	r1, [r4]
200001b2:	f38e 8810 	msr	PRIMASK, lr
200001b6:	f04f 4450 	mov.w	r4, #3489660928	@ 0xd0000000
200001ba:	f994 4000 	ldrsb.w	r4, [r4]
200001be:	4564      	cmp	r4, ip
200001c0:	d101      	bne.n	200001c6 <mutex_try_enter_block_until+0x4a>
200001c2:	4608      	mov	r0, r1
200001c4:	bd10      	pop	{r4, pc}
200001c6:	e8bd 4010 	ldmia.w	sp!, {r4, lr}
200001ca:	f7ff bfa1 	b.w	20000110 <mutex_enter_block_until>
200001ce:	f04f 4250 	mov.w	r2, #3489660928	@ 0xd0000000
200001d2:	6812      	ldr	r2, [r2, #0]
200001d4:	2300      	movs	r3, #0
200001d6:	7102      	strb	r2, [r0, #4]
200001d8:	e8c4 3f8f 	stlb	r3, [r4]
200001dc:	f38e 8810 	msr	PRIMASK, lr
200001e0:	2001      	movs	r0, #1
200001e2:	bd10      	pop	{r4, pc}

200001e4 <mutex_exit>:
200001e4:	6803      	ldr	r3, [r0, #0]
200001e6:	f3ef 8210 	mrs	r2, PRIMASK
200001ea:	b672      	cpsid	i
200001ec:	e8d3 cfcf 	ldaexb	ip, [r3]
200001f0:	2101      	movs	r1, #1
200001f2:	f1bc 0f00 	cmp.w	ip, #0
200001f6:	d1f9      	bne.n	200001ec <mutex_exit+0x8>
200001f8:	e8c3 1f4c 	strexb	ip, r1, [r3]
200001fc:	f1bc 0f00 	cmp.w	ip, #0
20000200:	d1f4      	bne.n	200001ec <mutex_exit+0x8>
20000202:	f3bf 8f5f 	dmb	sy
20000206:	f04f 0cff 	mov.w	ip, #255	@ 0xff
2000020a:	2300      	movs	r3, #0
2000020c:	6801      	ldr	r1, [r0, #0]
2000020e:	f880 c004 	strb.w	ip, [r0, #4]
20000212:	e8c1 3f8f 	stlb	r3, [r1]
20000216:	f382 8810 	msr	PRIMASK, r2
2000021a:	bf40      	sev
2000021c:	4770      	bx	lr
2000021e:	bf00      	nop

20000220 <__best_effort_wfe_or_timeout_veneer>:
20000220:	f85f f000 	ldr.w	pc, [pc]	@ 20000224 <__best_effort_wfe_or_timeout_veneer+0x4>
20000224:	10000cd9 	.word	0x10000cd9

20000228 <striped_spin_lock_num>:
20000228:	00000010                                ....

2000022c <irq_handler_chain_slots>:
2000022c:	00000000 	.word	0x00000000
20000230:	00010000 	.word	0x00010000
	...
2000023c:	00020000 	.word	0x00020000
	...
20000248:	00030000 	.word	0x00030000
	...
20000254:	00ff0000 	.word	0x00ff0000
20000258:	00000000 	.word	0x00000000

2000025c <irq_handler_chain_first_slot>:
2000025c:	b501      	push	{r0, lr}
2000025e:	6848      	ldr	r0, [r1, #4]
20000260:	3101      	adds	r1, #1
20000262:	468e      	mov	lr, r1
20000264:	4700      	bx	r0

20000266 <irq_handler_chain_remove_tail>:
20000266:	4670      	mov	r0, lr
20000268:	3809      	subs	r0, #9
2000026a:	4901      	ldr	r1, [pc, #4]	@ (20000270 <irq_handler_chain_remove_tail+0xa>)
2000026c:	4788      	blx	r1
2000026e:	bd01      	pop	{r0, pc}
20000270:	10000635 	.word	0x10000635

20000274 <default_alarm_pool>:
	...
20000288:	200002b0                                ... 

2000028c <stdio_uart>:
2000028c:	100016b9 100017cd 1000170d 100017dd     ................
2000029c:	00000000 00000100                       ........

200002a4 <print_mutex>:
	...
